(lp1
(lp2
S'_PAD'
p3
aS'_GO'
p4
aS'_EOS'
p5
aS'_UNK'
p6
aS'yellow'
p7
aS'four'
p8
aS'Olympics'
p9
aS'hanging'
p10
aS'Until'
p11
aS'looking'
p12
aS'eligible'
p13
aS'electricity'
p14
aS'Ronald'
p15
aS'Western'
p16
aS'regional'
p17
aS'stabbed'
p18
aS'bringing'
p19
aS'Spurs'
p20
aS'prize'
p21
aS'wooden'
p22
aS'Paul'
p23
aS'straight'
p24
aS'tired'
p25
aS'Matthew'
p26
aS'second'
p27
aS'cooking'
p28
aS'contributed'
p29
aS'Hamilton'
p30
aS'fossil'
p31
aS'replaced'
p32
aS'increasing'
p33
aS'specialist'
p34
aS'hero'
p35
aS'reporter'
p36
aS'Church'
p37
aS'here'
p38
aS'reported'
p39
aS'kids'
p40
aS'climbed'
p41
aS'reports'
p42
aS'controversy'
p43
aS'military'
p44
aS'criticism'
p45
aS'golden'
p46
aS'explained'
p47
aS'Three'
p48
aS'replace'
p49
aS'brought'
p50
aS'Wales'
p51
aS'cocaine'
p52
aS'unit'
p53
aS'opponents'
p54
aS'spoke'
p55
aS'music'
p56
aS'therefore'
p57
aS'passport'
p58
aS'strike'
p59
aS'until'
p60
aS'populations'
p61
aS'successful'
p62
aS'brings'
p63
aS'hurt'
p64
aS'99'
p65
aS'glass'
p66
aS'90'
p67
aS'hole'
p68
aS'hold'
p69
aS'95'
p70
aS'circumstances'
p71
aS'locked'
p72
aS'pursue'
p73
aS'temperatures'
p74
aS'Colombia'
p75
aS'revenues'
p76
aS'example'
p77
aS'Le'
p78
aS'La'
p79
aS'household'
p80
aS'organized'
p81
aS'currency'
p82
aS'want'
p83
aS'travel'
p84
aS'damage'
p85
aS'machine'
p86
aS'how'
p87
aS'hot'
p88
aS'Zika'
p89
aS'A'
aS'beauty'
p90
aS'modest'
p91
aS'types'
p92
aS'effective'
p93
aS'wins'
p94
aS'headquarters'
p95
aS'cigarettes'
p96
aS'18th'
p97
aS'Another'
p98
aS'keeps'
p99
aS'democratic'
p100
aS'wing'
p101
aS'wind'
p102
aS'wine'
p103
aS'blind'
p104
aS'welcomed'
p105
aS'Abbott'
p106
aS'His'
p107
aS'fit'
p108
aS'fix'
p109
aS'survivors'
p110
aS'Harris'
p111
aS'hidden'
p112
aS'easier'
p113
aS'effects'
p114
aS'schools'
p115
aS'silver'
p116
aS'represents'
p117
aS'debut'
p118
aS'financial'
p119
aS'series'
p120
aS'Hollywood'
p121
aS're'
p122
aS'encourage'
p123
aS'engineer'
p124
aS'Super'
p125
aS'foundation'
p126
aS'University'
p127
aS'Work'
p128
aS'threatened'
p129
aS'sheet'
p130
aS'estimate'
p131
aS'enormous'
p132
aS'heading'
p133
aS'Human'
p134
aS'1970s'
p135
aS'trillion'
p136
aS'channels'
p137
aS'wasn'
p138
aS'olds'
p139
aS'basketball'
p140
aS'service'
p141
aS'engagement'
p142
aS'needed'
p143
aS'master'
p144
aS'listed'
p145
aS'legs'
p146
aS'bitter'
p147
aS'ranging'
p148
aS'listen'
p149
aS'collapse'
p150
aS'legally'
p151
aS'Kaine'
p152
aS'showed'
p153
aS'tree'
p154
aS'nations'
p155
aS'project'
p156
aS'feeling'
p157
aS'acquisition'
p158
aS'Chicago'
p159
aS'runner'
p160
aS'Angela'
p161
aS'Williams'
p162
aS'dozen'
p163
aS'Then'
p164
aS'person'
p165
aS'responsible'
p166
aS'recommended'
p167
aS'causing'
p168
aS'Minister'
p169
aS'They'
p170
aS'Bank'
p171
aS'Jones'
p172
aS'object'
p173
aS'y'
aS'mouth'
p174
aS'letter'
p175
aS'conceded'
p176
aS'drought'
p177
aS'singer'
p178
aS'episode'
p179
aS'professor'
p180
aS'camp'
p181
aS'tech'
p182
aS'came'
p183
aS'saying'
p184
aS'bomb'
p185
aS'Union'
p186
aS'meetings'
p187
aS'Agency'
p188
aS'nominated'
p189
aS'participate'
p190
aS'lessons'
p191
aS'busy'
p192
aS'menu'
p193
aS'theme'
p194
aS'touched'
p195
aS'rich'
p196
aS'plate'
p197
aS'pocket'
p198
aS'X'
aS'Rio'
p199
aS'release'
p200
aS'respond'
p201
aS'disaster'
p202
aS'fair'
p203
aS'Anderson'
p204
aS'result'
p205
aS'fail'
p206
aS'John'
p207
aS'best'
p208
aS'campaigners'
p209
aS'lots'
p210
aS'score'
p211
aS'preserve'
p212
aS'letting'
p213
aS'men'
p214
aS'nationwide'
p215
aS'nature'
p216
aS'rolled'
p217
aS'extent'
p218
aS'carbon'
p219
aS'debt'
p220
aS'accident'
p221
aS'brown'
p222
aS'country'
p223
aS'demanded'
p224
aS'Laura'
p225
aS'planned'
p226
aS'argue'
p227
aS'Aberdeen'
p228
aS'asked'
p229
aS'and'
p230
aS'Telegraph'
p231
aS'pregnancy'
p232
aS'250'
p233
aS'union'
p234
aS'criticised'
p235
aS'.'
aS'much'
p236
aS'stadium'
p237
aS'Christopher'
p238
aS'life'
p239
aS'eastern'
p240
aS'Poland'
p241
aS'worker'
p242
aS'wish'
p243
aS'substance'
p244
aS'child'
p245
aS'worked'
p246
aS'spin'
p247
aS'presidency'
p248
aS'Campbell'
p249
aS'flooding'
p250
aS'played'
p251
aS'player'
p252
aS'Capital'
p253
aS'campaigning'
p254
aS'memorial'
p255
aS'recover'
p256
aS'things'
p257
aS'split'
p258
aS'babies'
p259
aS'fairly'
p260
aS'Maybe'
p261
aS'workforce'
p262
aS'Angeles'
p263
aS'ownership'
p264
aS'academic'
p265
aS'corporate'
p266
aS'Russell'
p267
aS'rushing'
p268
aS'previous'
p269
aS'Russians'
p270
aS'Oscar'
p271
aS'ease'
p272
aS'had'
p273
aS'innocent'
p274
aS'prison'
p275
aS'has'
p276
aS'hat'
p277
aS'survival'
p278
aS'posed'
p279
aS'possible'
p280
aS'possibly'
p281
aS'birth'
p282
aS'Missouri'
p283
aS'imposed'
p284
aS'shadow'
p285
aS'unique'
p286
aS'desire'
p287
aS'psychological'
p288
aS'steps'
p289
aS'Steven'
p290
aS'Pentagon'
p291
aS'Warren'
p292
aS'Swedish'
p293
aS'attorney'
p294
aS'right'
p295
aS'old'
p296
aS'crowd'
p297
aS'people'
p298
aS'crown'
p299
aS'harassment'
p300
aS'for'
p301
aS'bottom'
p302
aS'creative'
p303
aS'continue'
p304
aS'Facebook'
p305
aS'Keith'
p306
aS'MPs'
p307
aS'defensive'
p308
aS'losing'
p309
aS'manufacturing'
p310
aS'First'
p311
aS'dollars'
p312
aS'citizens'
p313
aS'o'
aS'slightly'
p314
aS'raised'
p315
aS'statements'
p316
aS'facility'
p317
aS'Scotland'
p318
aS'son'
p319
aS'Aaron'
p320
aS'raises'
p321
aS'Korean'
p322
aS'reducing'
p323
aS'ISIS'
p324
aS'support'
p325
aS'constantly'
p326
aS'raped'
p327
aS'resulted'
p328
aS'launching'
p329
aS'Djokovic'
p330
aS'offer'
p331
aS'inside'
p332
aS'devices'
p333
aS'County'
p334
aS'Tony'
p335
aS'Sir'
p336
aS'later'
p337
aS'liberal'
p338
aS'implications'
p339
aS'Six'
p340
aS'Josh'
p341
aS'proven'
p342
aS'Virgin'
p343
aS'exist'
p344
aS'accounting'
p345
aS"',"
p346
aS'negotiations'
p347
aS'posting'
p348
aS'Francisco'
p349
aS'floor'
p350
aS'actor'
p351
aS'flood'
p352
aS'role'
p353
aS'ambitious'
p354
aS'transgender'
p355
aS'developers'
p356
aS'roll'
p357
aS'E'
aS'models'
p358
aS'Melbourne'
p359
aS'invested'
p360
aS'rolling'
p361
aS'Charles'
p362
aS'time'
p363
aS'push'
p364
aS'chain'
p365
aS'Indians'
p366
aS'Indiana'
p367
aS'chair'
p368
aS'92'
p369
aS'veterans'
p370
aS'Prize'
p371
aS'allegations'
p372
aS'choice'
p373
aS'exact'
p374
aS'minute'
p375
aS'tear'
p376
aS'leave'
p377
aS'settle'
p378
aS'team'
p379
aS'speculation'
p380
aS'Kevin'
p381
aS'prevent'
p382
aS'findings'
p383
aS'sign'
p384
aS'celebrated'
p385
aS'current'
p386
aS'300'
p387
aS'Cruz'
p388
aS'falling'
p389
aS'Francis'
p390
aS'boost'
p391
aS'Me'
p392
aS'jury'
p393
aS'honour'
p394
aS'funeral'
p395
aS'understanding'
p396
aS'Ms'
p397
aS'Mr'
p398
aS'alone'
p399
aS'along'
p400
aS'My'
p401
aS'Warner'
p402
aS'passengers'
p403
aS'Associated'
p404
aS'brilliant'
p405
aS'studied'
p406
aS'funded'
p407
aS'MP'
p408
aS'studies'
p409
aS'love'
p410
aS'prefer'
p411
aS'fake'
p412
aS'August'
p413
aS'working'
p414
aS'positive'
p415
aS'angry'
p416
aS'opposed'
p417
aS'Bulldogs'
p418
aS'films'
p419
aS'prosecutor'
p420
aS'afford'
p421
aS'apparent'
p422
aS'visual'
p423
aS'Jimmy'
p424
aS'everywhere'
p425
aS'behalf'
p426
aS'Pope'
p427
aS'Brian'
p428
aS'originally'
p429
aS'abortion'
p430
aS'believes'
p431
aS'values'
p432
aS'believed'
p433
aS'Our'
p434
aS'Out'
p435
aS'Federal'
p436
aS'unveiled'
p437
aS'allowed'
p438
aS'offense'
p439
aS'monitoring'
p440
aS'winter'
p441
aS'divided'
p442
aS'Who'
p443
aS'immune'
p444
aS'H'
aS'Why'
p445
aS'spot'
p446
aS'applications'
p447
aS'date'
p448
aS'such'
p449
aS'revealed'
p450
aS'stress'
p451
aS'natural'
p452
aS'sectors'
p453
aS'truck'
p454
aS'pulled'
p455
aS'Islam'
p456
aS'Bowie'
p457
aS'years'
p458
aS'course'
p459
aS'episodes'
p460
aS'Perth'
p461
aS'torn'
p462
aS'suspicion'
p463
aS'suspension'
p464
aS'troubled'
p465
aS'decades'
p466
aS'petition'
p467
aS'civilian'
p468
aS'matches'
p469
aS'nation'
p470
aS'records'
p471
aS'Gordon'
p472
aS'arriving'
p473
aS'maintaining'
p474
aS'didn'
p475
aS'Stanley'
p476
aS'quarter'
p477
aS'square'
p478
aS'beloved'
p479
aS'Live'
p480
aS'entering'
p481
aS'sexually'
p482
aS'Elizabeth'
p483
aS'Michigan'
p484
aS'contained'
p485
aS'investigation'
p486
aS'trauma'
p487
aS'Joe'
p488
aS'internet'
p489
aS'suggesting'
p490
aS'Jon'
p491
aS'million'
p492
aS'seventh'
p493
aS'governing'
p494
aS'quite'
p495
aS'complicated'
p496
aS'plea'
p497
aS'training'
p498
aS'wrong'
p499
aS'massive'
p500
aS'routes'
p501
aS'Brazil'
p502
aS'saving'
p503
aS'reveals'
p504
aS'spoken'
p505
aS'Royal'
p506
aS'one'
p507
aS'vote'
p508
aS'open'
p509
aS'city'
p510
aS'Monday'
p511
aS'indicate'
p512
aS'teacher'
p513
aS'2'
aS'draft'
p514
aS'shoppers'
p515
aS'structures'
p516
aS'Patrick'
p517
aS'representing'
p518
aS'boyfriend'
p519
aS'Seven'
p520
aS'rival'
p521
aS'future'
p522
aS'prospect'
p523
aS'addressing'
p524
aS'illness'
p525
aS'turned'
p526
aS'locations'
p527
aS'sad'
p528
aS'Field'
p529
aS'say'
p530
aS'buried'
p531
aS'saw'
p532
aS'sat'
p533
aS'Jewish'
p534
aS'aside'
p535
aS'note'
p536
aS'take'
p537
aS'destroy'
p538
aS'Hall'
p539
aS'opposite'
p540
aS'knew'
p541
aS'remarks'
p542
aS'knee'
p543
aS'pages'
p544
aS'average'
p545
aS'infections'
p546
aS'drive'
p547
aS'managing'
p548
aS'salt'
p549
aS'laws'
p550
aS'Blue'
p551
aS'walking'
p552
aS'Broncos'
p553
aS'Sky'
p554
aS'bright'
p555
aS'aggressive'
p556
aS'slow'
p557
aS'3'
aS'tears'
p558
aS'going'
p559
aS'dancing'
p560
aS'equipped'
p561
aS'outrage'
p562
aS'congressional'
p563
aS'dispute'
p564
aS'assistant'
p565
aS'Having'
p566
aS'prime'
p567
aS'artist'
p568
aS'worried'
p569
aS'midfield'
p570
aS'Manchester'
p571
aS'bombs'
p572
aS'where'
p573
aS'vision'
p574
aS'surgery'
p575
aS'That'
p576
aS'jumped'
p577
aS'sites'
p578
aS'affecting'
p579
aS'teens'
p580
aS'jobs'
p581
aS'screen'
p582
aS'supermarket'
p583
aS'awards'
p584
aS'jets'
p585
aS'residence'
p586
aS's'
aS'workplace'
p587
aS'expression'
p588
aS'twin'
p589
aS'anti'
p590
aS'article'
p591
aS'boat'
p592
aS'stretch'
p593
aS'west'
p594
aS'airlines'
p595
aS'combined'
p596
aS'Princess'
p597
aS'wants'
p598
aS'enable'
p599
aS'thousand'
p600
aS'formed'
p601
aS'photos'
p602
aS'Davies'
p603
aS'former'
p604
aS'consultant'
p605
aS'polls'
p606
aS'engineering'
p607
aS'policies'
p608
aS'newspaper'
p609
aS'situation'
p610
aS'spotlight'
p611
aS'engaged'
p612
aS'technology'
p613
aS'fame'
p614
aS'missiles'
p615
aS'surveillance'
p616
aS'I'
aS'renewable'
p617
aS'tracking'
p618
aS'costs'
p619
aS'trains'
p620
aS'Port'
p621
aS'summer'
p622
aS'being'
p623
aS'rest'
p624
aS'Conservative'
p625
aS'Daniel'
p626
aS'weekly'
p627
aS'subsequently'
p628
aS'aspects'
p629
aS'around'
p630
aS'dark'
p631
aS'traffic'
p632
aS'("'
p633
aS'world'
p634
aS'($'
p635
aS'offenders'
p636
aS'Perry'
p637
aS'India'
p638
aS'racial'
p639
aS'thinks'
p640
aS'memories'
p641
aS'cannabis'
p642
aS'exit'
p643
aS'scientific'
p644
aS'power'
p645
aS'iconic'
p646
aS'leadership'
p647
aS'executives'
p648
aS'stone'
p649
aS'package'
p650
aS'industry'
p651
aS'favorite'
p652
aS'meal'
p653
aS'act'
p654
aS'luck'
p655
aS'fundraising'
p656
aS'burning'
p657
aS'No'
p658
aS'image'
p659
aS'homeless'
p660
aS'parties'
p661
aS'her'
p662
aS'sides'
p663
aS'complete'
p664
aS'survived'
p665
aS'Harry'
p666
aS'technologies'
p667
aS'with'
p668
aS'buying'
p669
aS'abused'
p670
aS'pull'
p671
aS'rush'
p672
aS'House'
p673
aS'politically'
p674
aS'agree'
p675
aS'detailed'
p676
aS'gone'
p677
aS'ad'
p678
aS'certain'
p679
aS'am'
p680
aS'al'
p681
aS'Thursday'
p682
aS'an'
p683
aS'How'
p684
aS'as'
p685
aS'au'
p686
aS'at'
p687
aS'walks'
p688
aS'watched'
p689
aS'cream'
p690
aS'Real'
p691
aS'Tory'
p692
aS'graduate'
p693
aS'tight'
p694
aS'Watson'
p695
aS'Atlantic'
p696
aS'Scott'
p697
aS'Lady'
p698
aS'Tottenham'
p699
aS'2007'
p700
aS'Kurdish'
p701
aS'Alex'
p702
aS'rallies'
p703
aS'Street'
p704
aS'mass'
p705
aS'original'
p706
aS'Canada'
p707
aS'consider'
p708
aS'caused'
p709
aS'debris'
p710
aS'welfare'
p711
aS'causes'
p712
aS'hunting'
p713
aS'champions'
p714
aS'to'
p715
aS'dressing'
p716
aS'smile'
p717
aS'paying'
p718
aS'appointment'
p719
aS'returned'
p720
aS'detention'
p721
aS'condition'
p722
aS'cable'
p723
aS'strategist'
p724
aS'joined'
p725
aS'large'
p726
aS'sand'
p727
aS'small'
p728
aS'penalties'
p729
aS'past'
p730
aS'pass'
p731
aS'investment'
p732
aS'clock'
p733
aS'section'
p734
aS'Ferguson'
p735
aS'scientists'
p736
aS'nurse'
p737
aS'method'
p738
aS'contrast'
p739
aS'revealing'
p740
aS'hasn'
p741
aS'full'
p742
aS'Charlie'
p743
aS'hours'
p744
aS'civilians'
p745
aS'legend'
p746
aS'brutal'
p747
aS'prior'
p748
aS'social'
p749
aS'action'
p750
aS'via'
p751
aS'followed'
p752
aS'Aug'
p753
aS'Richmond'
p754
aS'select'
p755
aS'6'
aS'Russian'
p756
aS'more'
p757
aS'teen'
p758
aS'door'
p759
aS'company'
p760
aS'tested'
p761
aS'keeping'
p762
aS'science'
p763
aS'sent'
p764
aS'learn'
p765
aS'knocked'
p766
aS'male'
p767
aS'Your'
p768
aS'Conference'
p769
aS'stated'
p770
aS'accept'
p771
aS'autumn'
p772
aS'sense'
p773
aS'station'
p774
aS'dress'
p775
aS'Glasgow'
p776
aS'information'
p777
aS'dismissed'
p778
aS'earnings'
p779
aS'plant'
p780
aS'Isis'
p781
aS'intended'
p782
aS'treatments'
p783
aS'plane'
p784
aS'director'
p785
aS'waves'
p786
aS'Swiss'
p787
aS'pleaded'
p788
aS'register'
p789
aS'fundamental'
p790
aS'installed'
p791
aS'attitude'
p792
aS'embassy'
p793
aS'signs'
p794
aS'its'
p795
aS'roots'
p796
aS'rapidly'
p797
aS'symptoms'
p798
aS'inquiry'
p799
aS'travelling'
p800
aS'Brussels'
p801
aS'ally'
p802
aS'colleague'
p803
aS'Michael'
p804
aS'hundred'
p805
aS'always'
p806
aS'Authority'
p807
aS'courses'
p808
aS'found'
p809
aS'shocking'
p810
aS'investigators'
p811
aS'status'
p812
aS'Rose'
p813
aS'reduce'
p814
aS'investigated'
p815
aS'operation'
p816
aS'really'
p817
aS'try'
p818
aS'missed'
p819
aS'research'
p820
aS'highway'
p821
aS'belief'
p822
aS'risen'
p823
aS'sparked'
p824
aS'qualify'
p825
aS'Nine'
p826
aS'imagine'
p827
aS'rises'
p828
aS'driven'
p829
aS'owners'
p830
aS'major'
p831
aS'slipped'
p832
aS'number'
p833
aS'guess'
p834
aS'heads'
p835
aS'guest'
p836
aS'jet'
p837
aS'introduction'
p838
aS'Guardian'
p839
aS'threatening'
p840
aS'relationship'
p841
aS'interviewed'
p842
aS'immediate'
p843
aS'focusing'
p844
aS'vocal'
p845
aS'determined'
p846
aS'marriage'
p847
aS'Alexander'
p848
aS'organisations'
p849
aS'sell'
p850
aS'Food'
p851
aS'self'
p852
aS'also'
p853
aS'internal'
p854
aS'play'
p855
aS'M'
aS'virus'
p856
aS'plan'
p857
aS'accepting'
p858
aS'understands'
p859
aS'Google'
p860
aS'sometimes'
p861
aS'cover'
p862
aS'intention'
p863
aS'bodies'
p864
aS'barrel'
p865
aS'attacking'
p866
aS'golf'
p867
aS'gold'
p868
aS'defended'
p869
aS'session'
p870
aS'Alan'
p871
aS'defender'
p872
aS'impact'
p873
aS'writes'
p874
aS'Muslim'
p875
aS'failed'
p876
aS'factor'
p877
aS'?'
aS'Prime'
p878
aS'Masters'
p879
aS'banned'
p880
aS'Lakers'
p881
aS'actions'
p882
aS'closely'
p883
aS'reporters'
p884
aS'enemy'
p885
aS'progressive'
p886
aS'banking'
p887
aS'kill'
p888
aS'river'
p889
aS'set'
p890
aS'For'
p891
aS'activists'
p892
aS'Fox'
p893
aS'sex'
p894
aS'see'
p895
aS'migration'
p896
aS'sea'
p897
aS'regulator'
p898
aS'#'
aS'movie'
p899
aS'currently'
p900
aS'Freedom'
p901
aS'knowing'
p902
aS'targeted'
p903
aS'Florida'
p904
aS'incident'
p905
aS'renewed'
p906
aS'prospects'
p907
aS'Jason'
p908
aS'influential'
p909
aS'barely'
p910
aS'connection'
p911
aS'let'
p912
aS'whole'
p913
aS'drunk'
p914
aS'acted'
p915
aS'community'
p916
aS'agents'
p917
aS'),'
p918
aS'church'
p919
aS'belt'
p920
aS'monthly'
p921
aS'hitting'
p922
aS'suburbs'
p923
aS'Queensland'
p924
aS'Care'
p925
aS'firm'
p926
aS'champion'
p927
aS'fire'
p928
aS'mine'
p929
aS'fund'
p930
aS'races'
p931
aS'Saudi'
p932
aS'towns'
p933
aS'Fairfax'
p934
aS'handling'
p935
aS'Old'
p936
aS'reliable'
p937
aS'expanded'
p938
aS'budget'
p939
aS'receive'
p940
aS'pressed'
p941
aS'error'
p942
aS'Miss'
p943
aS'pound'
p944
aS'hoping'
p945
aS'backing'
p946
aS'triple'
p947
aS'34'
p948
aS'chase'
p949
aS'funny'
p950
aS'read'
p951
aS'virtually'
p952
aS'survey'
p953
aS'affairs'
p954
aS'comprehensive'
p955
aS'alert'
p956
aS'levels'
p957
aS'implement'
p958
aS'euro'
p959
aS'Project'
p960
aS'concrete'
p961
aS'Labor'
p962
aS'arrests'
p963
aS'readers'
p964
aS'signals'
p965
aS'eager'
p966
aS'parents'
p967
aS'location'
p968
aS'Marine'
p969
aS'surprised'
p970
aS'Both'
p971
aS'victims'
p972
aS'doors'
p973
aS'emergency'
p974
aS'demands'
p975
aS'Of'
p976
aS'couple'
p977
aS'suffering'
p978
aS'Or'
p979
aS'projects'
p980
aS'formal'
p981
aS'OK'
p982
aS'd'
aS'Nick'
p983
aS'Show'
p984
aS'consensus'
p985
aS'communications'
p986
aS'individuals'
p987
aS'Dakota'
p988
aS'disorder'
p989
aS'names'
p990
aS'methods'
p991
aS'spring'
p992
aS'Andy'
p993
aS'sight'
p994
aS'Frank'
p995
aS'religion'
p996
aS'dating'
p997
aS'be'
p998
aS'Brady'
p999
aS'UPI'
p1000
aS'agreement'
p1001
aS'Antonio'
p1002
aS'by'
p1003
aS'wildlife'
p1004
aS'anything'
p1005
aS'repair'
p1006
aS'terrorists'
p1007
aS'into'
p1008
aS'Young'
p1009
aS'appropriate'
p1010
aS'primarily'
p1011
aS'ACT'
p1012
aS'NEW'
p1013
aS'spending'
p1014
aS'Army'
p1015
aS'specifically'
p1016
aS'crackdown'
p1017
aS'suit'
p1018
aS':'
aS'opens'
p1019
aS'elsewhere'
p1020
aS'inches'
p1021
aS'link'
p1022
aS'line'
p1023
aS'considerable'
p1024
aS'posted'
p1025
aS'GDP'
p1026
aS'Office'
p1027
aS'Jeff'
p1028
aS'Africa'
p1029
aS'up'
p1030
aS'us'
p1031
aS'customers'
p1032
aS'medical'
p1033
aS'defined'
p1034
aS'influence'
p1035
aS'diverse'
p1036
aS'Manhattan'
p1037
aS'preventing'
p1038
aS'points'
p1039
aS'actors'
p1040
aS'elements'
p1041
aS'Netflix'
p1042
aS'prosecution'
p1043
aS'meals'
p1044
aS'ago'
p1045
aS'lane'
p1046
aS'land'
p1047
aS'fighter'
p1048
aS'rescued'
p1049
aS'holes'
p1050
aS'walked'
p1051
aS'summit'
p1052
aS'Cardiff'
p1053
aS'fresh'
p1054
aS'having'
p1055
aS'code'
p1056
aS'Jim'
p1057
aS'results'
p1058
aS'existing'
p1059
aS'legal'
p1060
aS'broader'
p1061
aS'centers'
p1062
aS'seemed'
p1063
aS'concerned'
p1064
aS'young'
p1065
aS'send'
p1066
aS'citing'
p1067
aS'resources'
p1068
aS'garden'
p1069
aS'torture'
p1070
aS'continues'
p1071
aS'continued'
p1072
aS'magic'
p1073
aS'experiencing'
p1074
aS'fewer'
p1075
aS'Vermont'
p1076
aS'race'
p1077
aS'obesity'
p1078
aS'Seattle'
p1079
aS'challenge'
p1080
aS'pledge'
p1081
aS'video'
p1082
aS'odd'
p1083
aS'index'
p1084
aS'Jessica'
p1085
aS'expressed'
p1086
aS'consistently'
p1087
aS'firms'
p1088
aS'bird'
p1089
aS'led'
p1090
aS'leg'
p1091
aS'respectively'
p1092
aS'gathered'
p1093
aS'delivering'
p1094
aS'dressed'
p1095
aS'poverty'
p1096
aS'licence'
p1097
aS'consideration'
p1098
aS'Commonwealth'
p1099
aS'great'
p1100
aS'engage'
p1101
aS'technical'
p1102
aS'involved'
p1103
aS'Energy'
p1104
aS'resulting'
p1105
aS'defeat'
p1106
aS'opinion'
p1107
aS'residents'
p1108
aS'makes'
p1109
aS'maker'
p1110
aS'involves'
p1111
aS'outcomes'
p1112
aS'ninth'
p1113
aS'tools'
p1114
aS'standing'
p1115
aS'confidence'
p1116
aS'illegal'
p1117
aS'ministers'
p1118
aS'next'
p1119
aS'doubt'
p1120
aS'NATO'
p1121
aS'occurred'
p1122
aS'carrying'
p1123
aS'sharply'
p1124
aS'baby'
p1125
aS'charity'
p1126
aS'customer'
p1127
aS'balls'
p1128
aS'animals'
p1129
aS'this'
p1130
aS'athlete'
p1131
aS'clients'
p1132
aS'insists'
p1133
aS'thin'
p1134
aS'Police'
p1135
aS'process'
p1136
aS'lock'
p1137
aS'pieces'
p1138
aS'high'
p1139
aS'slip'
p1140
aS'Policy'
p1141
aS'Several'
p1142
aS'Christmas'
p1143
aS'educational'
p1144
aS'delay'
p1145
aS'animal'
p1146
aS'comedy'
p1147
aS'establishment'
p1148
aS'blocks'
p1149
aS'tied'
p1150
aS'ties'
p1151
aS'Uber'
p1152
aS'realized'
p1153
aS'Apple'
p1154
aS'counter'
p1155
aS'Community'
p1156
aS'element'
p1157
aS'allow'
p1158
aS'Greece'
p1159
aS'volunteers'
p1160
aS'Catholic'
p1161
aS'producer'
p1162
aS'move'
p1163
aS'produced'
p1164
aS'perfect'
p1165
aS'Emergency'
p1166
aS'chosen'
p1167
aS'Cabinet'
p1168
aS'2019'
p1169
aS'2018'
p1170
aS'2015'
p1171
aS'2014'
p1172
aS'2017'
p1173
aS'2016'
p1174
aS'2011'
p1175
aS'2010'
p1176
aS'2013'
p1177
aS'2012'
p1178
aS'Dubai'
p1179
aS'bat'
p1180
aS'Social'
p1181
aS'realize'
p1182
aS'presidential'
p1183
aS'San'
p1184
aS'Sam'
p1185
aS'truth'
p1186
aS'accounts'
p1187
aS'beneath'
p1188
aS'Kate'
p1189
aS'Network'
p1190
aS'doing'
p1191
aS'society'
p1192
aS'books'
p1193
aS'Treasury'
p1194
aS'Nathan'
p1195
aS'goalkeeper'
p1196
aS'witness'
p1197
aS"'"
aS'Farage'
p1198
aS'shut'
p1199
aS'WASHINGTON'
p1200
aS'regulators'
p1201
aS'surely'
p1202
aS'Ryan'
p1203
aS'regulatory'
p1204
aS'mainland'
p1205
aS'Point'
p1206
aS'dubbed'
p1207
aS'could'
p1208
aS'Arsenal'
p1209
aS'length'
p1210
aS'removing'
p1211
aS'there'
p1212
aS'scene'
p1213
aS'owned'
p1214
aS'racism'
p1215
aS'owner'
p1216
aS'legislative'
p1217
aS'Iran'
p1218
aS'reference'
p1219
aS'Eastern'
p1220
aS'festival'
p1221
aS'system'
p1222
aS'travelled'
p1223
aS'Iraq'
p1224
aS'painful'
p1225
aS'evacuated'
p1226
aS'interests'
p1227
aS'enforcement'
p1228
aS'stomach'
p1229
aS'stars'
p1230
aS'Democratic'
p1231
aS'elite'
p1232
aS'haven'
p1233
aS'steel'
p1234
aS'colleagues'
p1235
aS'appealing'
p1236
aS'accusing'
p1237
aS'false'
p1238
aS'partnership'
p1239
aS'Westminster'
p1240
aS'defending'
p1241
aS'One'
p1242
aS'clearly'
p1243
aS'viewed'
p1244
aS'resigned'
p1245
aS'studying'
p1246
aS'worldwide'
p1247
aS'Hughes'
p1248
aS'visa'
p1249
aS'device'
p1250
aS'medal'
p1251
aS'Asked'
p1252
aS'Reserve'
p1253
aS'stronger'
p1254
aS'face'
p1255
aS'wounded'
p1256
aS'painting'
p1257
aS'fact'
p1258
aS'atmosphere'
p1259
aS'Paris'
p1260
aS'Rangers'
p1261
aS'Under'
p1262
aS'rough'
p1263
aS'asylum'
p1264
aS'economist'
p1265
aS'decade'
p1266
aS'principal'
p1267
aS'Meanwhile'
p1268
aS'should'
p1269
aS'bombings'
p1270
aS'tape'
p1271
aS'riding'
p1272
aS'hope'
p1273
aS'meant'
p1274
aS'Brumbies'
p1275
aS'handle'
p1276
aS'means'
p1277
aS'Whether'
p1278
aS'familiar'
p1279
aS'lucky'
p1280
aS'River'
p1281
aS'Once'
p1282
aS'Because'
p1283
aS'taxes'
p1284
aS'extremists'
p1285
aS'stuff'
p1286
aS'Afghanistan'
p1287
aS'temporarily'
p1288
aS'frame'
p1289
aS'edition'
p1290
aS'packed'
p1291
aS'extend'
p1292
aS'nuclear'
p1293
aS'Republican'
p1294
aS'email'
p1295
aS'PM'
p1296
aS'ends'
p1297
aS'explosive'
p1298
aS'lawsuit'
p1299
aS'restrictions'
p1300
aS'invited'
p1301
aS'drug'
p1302
aS'figures'
p1303
aS'heart'
p1304
aS'co'
p1305
aS'Her'
p1306
aS'migrant'
p1307
aS'winning'
p1308
aS'powered'
p1309
aS'genetic'
p1310
aS'degrees'
p1311
aS'waste'
p1312
aS'Gen'
p1313
aS've'
p1314
aS'site'
p1315
aS'optimistic'
p1316
aS'sits'
p1317
aS'inquest'
p1318
aS'terrorist'
p1319
aS'highlighted'
p1320
aS'outbreak'
p1321
aS'terrorism'
p1322
aS'Danny'
p1323
aS'Medical'
p1324
aS'drink'
p1325
aS'upon'
p1326
aS'forecasts'
p1327
aS'Greg'
p1328
aS'dust'
p1329
aS'identity'
p1330
aS'diabetes'
p1331
aS'off'
p1332
aS'colour'
p1333
aS'patterns'
p1334
aS'command'
p1335
aS'350'
p1336
aS'drawing'
p1337
aS'less'
p1338
aS'moments'
p1339
aS'rooms'
p1340
aS'web'
p1341
aS'generous'
p1342
aS'residential'
p1343
aS'Company'
p1344
aS'arrest'
p1345
aS'crack'
p1346
aS'Unfortunately'
p1347
aS'government'
p1348
aS'chancellor'
p1349
aS'increases'
p1350
aS'five'
p1351
aS'Law'
p1352
aS'become'
p1353
aS'replacement'
p1354
aS'gaining'
p1355
aS'footage'
p1356
aS'choosing'
p1357
aS'ballot'
p1358
aS'transport'
p1359
aS'literally'
p1360
aS'avoid'
p1361
aS'does'
p1362
aS'passion'
p1363
aS'schedule'
p1364
aS'Pence'
p1365
aS'pressure'
p1366
aS'accompanied'
p1367
aS'r'
aS'loans'
p1368
aS'hiding'
p1369
aS'gained'
p1370
aS'sister'
p1371
aS'lifestyle'
p1372
aS'puts'
p1373
aS'documentary'
p1374
aS'swimming'
p1375
aS'alliance'
p1376
aS'letters'
p1377
aS'commitment'
p1378
aS'three'
p1379
aS'assess'
p1380
aS'CNN'
p1381
aS'Labour'
p1382
aS'roads'
p1383
aS'charities'
p1384
aS'housing'
p1385
aS'spots'
p1386
aS'recognised'
p1387
aS'frustration'
p1388
aS'naturally'
p1389
aS'function'
p1390
aS'fiscal'
p1391
aS'Well'
p1392
aS'delivery'
p1393
aS'construction'
p1394
aS'Chelsea'
p1395
aS'count'
p1396
aS'places'
p1397
aS'\xc2\xa3'
p1398
aS'\xc2\xad'
p1399
aS'official'
p1400
aS'placed'
p1401
aS'convince'
p1402
aS'distribution'
p1403
aS'recognize'
p1404
aS'contribute'
p1405
aS'compared'
p1406
aS'variety'
p1407
aS'deadly'
p1408
aS'Tokyo'
p1409
aS'Utah'
p1410
aS'details'
p1411
aS'February'
p1412
aS'repeat'
p1413
aS'outlets'
p1414
aS'chance'
p1415
aS'U'
aS'South'
p1416
aS'exposure'
p1417
aS'rule'
p1418
aS'lift'
p1419
aS'compete'
p1420
aS'pension'
p1421
aS'Pyongyang'
p1422
aS'rural'
p1423
aS'inning'
p1424
aS'personally'
p1425
aS'controversial'
p1426
aS'oldest'
p1427
aS'saved'
p1428
aS'relationships'
p1429
aS'votes'
p1430
aS'voter'
p1431
aS'Watch'
p1432
aS'neighbours'
p1433
aS'bike'
p1434
aS'voted'
p1435
aS'worth'
p1436
aS'League'
p1437
aS'Iranian'
p1438
aS'Co'
p1439
aS'tickets'
p1440
aS'announced'
p1441
aS'SNP'
p1442
aS'phones'
p1443
aS'chef'
p1444
aS'Collins'
p1445
aS'machines'
p1446
aS'established'
p1447
aS'Amazon'
p1448
aS'above'
p1449
aS'toll'
p1450
aS'officially'
p1451
aS'told'
p1452
aS'protection'
p1453
aS'pursuit'
p1454
aS'celebration'
p1455
aS'obtained'
p1456
aS'daughter'
p1457
aS'items'
p1458
aS'Tuesday'
p1459
aS'Queen'
p1460
aS'smoke'
p1461
aS'stressed'
p1462
aS'Home'
p1463
aS'Orleans'
p1464
aS'secure'
p1465
aS'search'
p1466
aS'highly'
p1467
aS'Health'
p1468
aS'total'
p1469
aS'plot'
p1470
aS'Star'
p1471
aS'Reporter'
p1472
aS'negative'
p1473
aS'award'
p1474
aS'aware'
p1475
aS'allies'
p1476
aS'blocking'
p1477
aS'1991'
p1478
aS'1990'
p1479
aS'1993'
p1480
aS'1992'
p1481
aS'word'
p1482
aS'wore'
p1483
aS'1997'
p1484
aS'1996'
p1485
aS'1999'
p1486
aS'1998'
p1487
aS'work'
p1488
aS'refusing'
p1489
aS'worn'
p1490
aS'era'
p1491
aS'transparency'
p1492
aS'indicated'
p1493
aS'cited'
p1494
aS'Abu'
p1495
aS'recovery'
p1496
aS'provide'
p1497
aS'Journal'
p1498
aS'rookie'
p1499
aS'interview'
p1500
aS'ordinary'
p1501
aS'beach'
p1502
aS'offshore'
p1503
aS'Zealand'
p1504
aS'Dylan'
p1505
aS'earlier'
p1506
aS'damaged'
p1507
aS'lab'
p1508
aS'Ocean'
p1509
aS'Will'
p1510
aS'lay'
p1511
aS'law'
p1512
aS'US'
p1513
aS'appreciate'
p1514
aS'green'
p1515
aS'ambulance'
p1516
aS'worst'
p1517
aS'Trust'
p1518
aS'order'
p1519
aS'office'
p1520
aS'consent'
p1521
aS'innovative'
p1522
aS'misconduct'
p1523
aS'mayor'
p1524
aS'bombing'
p1525
aS'somewhere'
p1526
aS'highlights'
p1527
aS'production'
p1528
aS'Judge'
p1529
aS'versus'
p1530
aS'eventually'
p1531
aS'them'
p1532
aS'affected'
p1533
aS'safe'
p1534
aS'break'
p1535
aS'band'
p1536
aS'they'
p1537
aS'bank'
p1538
aS'bread'
p1539
aS'Control'
p1540
aS'classified'
p1541
aS'reasonable'
p1542
aS'lifted'
p1543
aS'councils'
p1544
aS'crimes'
p1545
aS'hosted'
p1546
aS'network'
p1547
aS'cameras'
p1548
aS'Wars'
p1549
aS'vessels'
p1550
aS'medicine'
p1551
aS'barrier'
p1552
aS'standard'
p1553
aS'admits'
p1554
aS'Cambridge'
p1555
aS'created'
p1556
aS'September'
p1557
aS'refugee'
p1558
aS'creates'
p1559
aS'Cooper'
p1560
aS'Palestinian'
p1561
aS'another'
p1562
aS'drones'
p1563
aS'thick'
p1564
aS'electronic'
p1565
aS'rated'
p1566
aS'approximately'
p1567
aS'rates'
p1568
aS'dogs'
p1569
aS'damaging'
p1570
aS'B'
aS'rejected'
p1571
aS'target'
p1572
aS'hike'
p1573
aS'scenes'
p1574
aS'Sea'
p1575
aS'Sen'
p1576
aS'hacking'
p1577
aS'powers'
p1578
aS'manner'
p1579
aS'Instead'
p1580
aS'forced'
p1581
aS'strength'
p1582
aS'Christian'
p1583
aS'latter'
p1584
aS'subjects'
p1585
aS'luxury'
p1586
aS'forces'
p1587
aS'completed'
p1588
aS'Latin'
p1589
aS'phase'
p1590
aS'grave'
p1591
aS'neighborhoods'
p1592
aS'Lewis'
p1593
aS'Election'
p1594
aS'deeply'
p1595
aS'voting'
p1596
aS'responded'
p1597
aS'reserve'
p1598
aS'anniversary'
p1599
aS'Anne'
p1600
aS'enjoyed'
p1601
aS'Anna'
p1602
aS'European'
p1603
aS'guidance'
p1604
aS'Republicans'
p1605
aS'screening'
p1606
aS'personality'
p1607
aS'predecessor'
p1608
aS'do'
p1609
aS'de'
p1610
aS'preferred'
p1611
aS'Soviet'
p1612
aS'runs'
p1613
aS'covering'
p1614
aS'secretary'
p1615
aS'Jackson'
p1616
aS'observed'
p1617
aS'discussions'
p1618
aS'techniques'
p1619
aS'away'
p1620
aS'Water'
p1621
aS'unable'
p1622
aS'cooperation'
p1623
aS'drawn'
p1624
aS'we'
p1625
aS'terms'
p1626
aS'handful'
p1627
aS'kitchen'
p1628
aS'received'
p1629
aS'essentially'
p1630
aS'ill'
p1631
aS'receiver'
p1632
aS'Navy'
p1633
aS'requests'
p1634
aS'com'
p1635
aS'tough'
p1636
aS'royal'
p1637
aS'Board'
p1638
aS'Ireland'
p1639
aS'wider'
p1640
aS'speak'
p1641
aS'Kerry'
p1642
aS'condemned'
p1643
aS'Hillary'
p1644
aS'dozens'
p1645
aS'duties'
p1646
aS'families'
p1647
aS'easy'
p1648
aS'Vice'
p1649
aS'Night'
p1650
aS'applied'
p1651
aS'tonight'
p1652
aS'east'
p1653
aS'ahead'
p1654
aS'publicly'
p1655
aS'air'
p1656
aS'aim'
p1657
aS'Cleveland'
p1658
aS'aid'
p1659
aS'voice'
p1660
aS'launched'
p1661
aS'mistake'
p1662
aS'Rubio'
p1663
aS'tissue'
p1664
aS'Convention'
p1665
aS'confirmed'
p1666
aS'Around'
p1667
aS'perform'
p1668
aS'wheel'
p1669
aS'independent'
p1670
aS'raid'
p1671
aS'Institute'
p1672
aS'hang'
p1673
aS'counterparts'
p1674
aS'hand'
p1675
aS'documents'
p1676
aS'blamed'
p1677
aS'kept'
p1678
aS'scenario'
p1679
aS'contact'
p1680
aS'centres'
p1681
aS'the'
p1682
aS'camps'
p1683
aS'musical'
p1684
aS'quoted'
p1685
aS'photo'
p1686
aS'thanks'
p1687
aS'victim'
p1688
aS'adding'
p1689
aS'poses'
p1690
aS'photographer'
p1691
aS'spread'
p1692
aS'board'
p1693
aS'Morning'
p1694
aS'boxes'
p1695
aS'Trump'
p1696
aS'night'
p1697
aS'security'
p1698
aS'Bangladesh'
p1699
aS'Commission'
p1700
aS'born'
p1701
aS'Lee'
p1702
aS'comments'
p1703
aS'filming'
p1704
aS'asking'
p1705
aS'Let'
p1706
aS'denied'
p1707
aS'beating'
p1708
aS'participation'
p1709
aS'Gray'
p1710
aS'School'
p1711
aS'marketing'
p1712
aS'pose'
p1713
aS'post'
p1714
aS'properties'
p1715
aS'Image'
p1716
aS'months'
p1717
aS'Cup'
p1718
aS'prisoners'
p1719
aS'bound'
p1720
aS'legislation'
p1721
aS'fight'
p1722
aS'clinical'
p1723
aS'way'
p1724
aS'was'
p1725
aS'war'
p1726
aS'lowest'
p1727
aS'becoming'
p1728
aS'elderly'
p1729
aS'true'
p1730
aS'responding'
p1731
aS'maximum'
p1732
aS'emotional'
p1733
aS'promises'
p1734
aS'medication'
p1735
aS'request'
p1736
aS'evidence'
p1737
aS'promised'
p1738
aS'physical'
p1739
aS'dying'
p1740
aS'stake'
p1741
aS'reality'
p1742
aS'interested'
p1743
aS'holding'
p1744
aS'test'
p1745
aS'scored'
p1746
aS'brothers'
p1747
aS'welcome'
p1748
aS'update'
p1749
aS'scores'
p1750
aS'together'
p1751
aS'Bishop'
p1752
aS'loyal'
p1753
aS'reception'
p1754
aS'songs'
p1755
aS'concept'
p1756
aS'dance'
p1757
aS'global'
p1758
aS'Republic'
p1759
aS'grateful'
p1760
aS'battle'
p1761
aS'certainly'
p1762
aS'killings'
p1763
aS'zone'
p1764
aS'terror'
p1765
aS'division'
p1766
aS'seemingly'
p1767
aS'trouble'
p1768
aS'blast'
p1769
aS'Jersey'
p1770
aS'perceived'
p1771
aS'Parker'
p1772
aS'Just'
p1773
aS'presented'
p1774
aS'turns'
p1775
aS'Global'
p1776
aS'gun'
p1777
aS'Duchess'
p1778
aS'p'
aS'guy'
p1779
aS'George'
p1780
aS'upper'
p1781
aS'revolution'
p1782
aS'bedroom'
p1783
aS'discover'
p1784
aS'cost'
p1785
aS'Rick'
p1786
aS'Orange'
p1787
aS'appear'
p1788
aS'assistance'
p1789
aS'shares'
p1790
aS'uniform'
p1791
aS'shared'
p1792
aS'appeal'
p1793
aS'Fort'
p1794
aS'supporting'
p1795
aS'explosion'
p1796
aS'Libya'
p1797
aS'English'
p1798
aS'appears'
p1799
aS'change'
p1800
aS'sending'
p1801
aS'Dean'
p1802
aS'trial'
p1803
aS'usually'
p1804
aS'retired'
p1805
aS'starring'
p1806
aS'extra'
p1807
aS'marked'
p1808
aS'rarely'
p1809
aS'market'
p1810
aS'prove'
p1811
aS'live'
p1812
aS'entrance'
p1813
aS'F'
aS'club'
p1814
aS'Mount'
p1815
aS'commissioned'
p1816
aS'organizations'
p1817
aS'migrants'
p1818
aS'car'
p1819
aS'cap'
p1820
aS'cat'
p1821
aS'incidents'
p1822
aS'can'
p1823
aS'photographs'
p1824
aS'dedicated'
p1825
aS'expanding'
p1826
aS'1980s'
p1827
aS'heard'
p1828
aS'clothing'
p1829
aS'occur'
p1830
aS",'"
p1831
aS',"'
p1832
aS'discussion'
p1833
aS'bonds'
p1834
aS'Austria'
p1835
aS'Munich'
p1836
aS'write'
p1837
aS'economy'
p1838
aS'product'
p1839
aS'southern'
p1840
aS'produce'
p1841
aS'commit'
p1842
aS'nomination'
p1843
aS'?"'
p1844
aS'lifting'
p1845
aS'remember'
p1846
aS'Metropolitan'
p1847
aS'Radio'
p1848
aS'typical'
p1849
aS'serving'
p1850
aS'Jay'
p1851
aS'indeed'
p1852
aS'Fed'
p1853
aS'Jan'
p1854
aS'ended'
p1855
aS'Feb'
p1856
aS'cold'
p1857
aS'still'
p1858
aS'birds'
p1859
aS'Greater'
p1860
aS'acknowledge'
p1861
aS'forms'
p1862
aS'window'
p1863
aS'non'
p1864
aS'halt'
p1865
aS'introduce'
p1866
aS'half'
p1867
aS'not'
p1868
aS'Tower'
p1869
aS'now'
p1870
aS'hall'
p1871
aS'nor'
p1872
aS'Stakes'
p1873
aS'drop'
p1874
aS'entirely'
p1875
aS'last'
p1876
aS'en'
p1877
aS'significantly'
p1878
aS'challenged'
p1879
aS'Museum'
p1880
aS'challenges'
p1881
aS'fires'
p1882
aS'ex'
p1883
aS'year'
p1884
aS'happen'
p1885
aS'avoided'
p1886
aS'Carolina'
p1887
aS'album'
p1888
aS'shown'
p1889
aS'opened'
p1890
aS'space'
p1891
aS'increase'
p1892
aS'Norwegian'
p1893
aS'opener'
p1894
aS'receiving'
p1895
aS'shows'
p1896
aS'cars'
p1897
aS'rebel'
p1898
aS'marine'
p1899
aS'card'
p1900
aS'care'
p1901
aS'couldn'
p1902
aS'transition'
p1903
aS'honest'
p1904
aS'promotion'
p1905
aS'Eric'
p1906
aS'Even'
p1907
aS'tennis'
p1908
aS'striking'
p1909
aS'There'
p1910
aS'Asia'
p1911
aS'yourself'
p1912
aS'directly'
p1913
aS'Medicine'
p1914
aS'impossible'
p1915
aS'message'
p1916
aS'drove'
p1917
aS'tomorrow'
p1918
aS'size'
p1919
aS'checked'
p1920
aS'caught'
p1921
aS'households'
p1922
aS'tragic'
p1923
aS'friend'
p1924
aS'mostly'
p1925
aS'that'
p1926
aS'inmates'
p1927
aS'flowers'
p1928
aS'than'
p1929
aS'professionals'
p1930
aS'television'
p1931
aS'transferred'
p1932
aS'happy'
p1933
aS'investors'
p1934
aS'remained'
p1935
aS'Philadelphia'
p1936
aS'anger'
p1937
aS'Mail'
p1938
aS'breakfast'
p1939
aS'Valley'
p1940
aS'offering'
p1941
aS'veteran'
p1942
aS'manufacturers'
p1943
aS'equipment'
p1944
aS'roster'
p1945
aS'online'
p1946
aS'Sean'
p1947
aS'begin'
p1948
aS'Unlike'
p1949
aS'price'
p1950
aS']'
aS'forever'
p1951
aS'Foundation'
p1952
aS'dream'
p1953
aS'reform'
p1954
aS'steady'
p1955
aS'professional'
p1956
aS'typically'
p1957
aS'filing'
p1958
aS'discovered'
p1959
aS'Reuters'
p1960
aS'fifth'
p1961
aS'ground'
p1962
aS'title'
p1963
aS'Kansas'
p1964
aS'proportion'
p1965
aS'only'
p1966
aS'truly'
p1967
aS'cannot'
p1968
aS'celebrate'
p1969
aS'Instagram'
p1970
aS'Allen'
p1971
aS'husband'
p1972
aS'concert'
p1973
aS'burst'
p1974
aS'physically'
p1975
aS'staged'
p1976
aS'elected'
p1977
aS'actively'
p1978
aS'sport'
p1979
aS'concern'
p1980
aS'suspects'
p1981
aS'seekers'
p1982
aS'materials'
p1983
aS'Berlin'
p1984
aS'between'
p1985
aS'notice'
p1986
aS'Johnson'
p1987
aS'blame'
p1988
aS'Team'
p1989
aS'comeback'
p1990
aS'talented'
p1991
aS'Malaysia'
p1992
aS'comes'
p1993
aS'nearby'
p1994
aS'Jeremy'
p1995
aS'passenger'
p1996
aS'Aleppo'
p1997
aS'learning'
p1998
aS'proved'
p1999
aS'Leader'
p2000
aS'cycling'
p2001
aS'informed'
p2002
aS'tournament'
p2003
aS'wounds'
p2004
aS'external'
p2005
aS'suspected'
p2006
aS'developing'
p2007
aS'these'
p2008
aS'UFC'
p2009
aS'Reagan'
p2010
aS'trick'
p2011
aS'determination'
p2012
aS'soil'
p2013
aS'commander'
p2014
aS'embrace'
p2015
aS'somebody'
p2016
aS'worry'
p2017
aS'Israel'
p2018
aS'develop'
p2019
aS'media'
p2020
aS'followers'
p2021
aS'Bloomberg'
p2022
aS'document'
p2023
aS'NSW'
p2024
aS'finish'
p2025
aS'centuries'
p2026
aS'closest'
p2027
aS'fruit'
p2028
aS'tradition'
p2029
aS'complained'
p2030
aS'theater'
p2031
aS'charges'
p2032
aS'constitutional'
p2033
aS'severe'
p2034
aS'Nazi'
p2035
aS'charged'
p2036
aS'taxi'
p2037
aS'Service'
p2038
aS'valuable'
p2039
aS'sweeping'
p2040
aS'touch'
p2041
aS'speed'
p2042
aS'death'
p2043
aS'euros'
p2044
aS'thinking'
p2045
aS'improvement'
p2046
aS'treatment'
p2047
aS'struck'
p2048
aS'momentum'
p2049
aS'real'
p2050
aS'spectacular'
p2051
aS'rules'
p2052
aS'offence'
p2053
aS'early'
p2054
aS'Tour'
p2055
aS'listening'
p2056
aS'using'
p2057
aS'execution'
p2058
aS'lady'
p2059
aS'ruled'
p2060
aS'pounds'
p2061
aS'collective'
p2062
aS'annually'
p2063
aS'benefit'
p2064
aS't'
aS'occasions'
p2065
aS'output'
p2066
aS'endorsed'
p2067
aS'Before'
p2068
aS'exposed'
p2069
aS'Mark'
p2070
aS'Mars'
p2071
aS'Mary'
p2072
aS'viral'
p2073
aS'Government'
p2074
aS'Earlier'
p2075
aS'recorded'
p2076
aS'conservative'
p2077
aS'deficit'
p2078
aS'felt'
p2079
aS'assembly'
p2080
aS'business'
p2081
aS'sixth'
p2082
aS'equivalent'
p2083
aS'exciting'
p2084
aS'throw'
p2085
aS'comparison'
p2086
aS'central'
p2087
aS'fell'
p2088
aS'testimony'
p2089
aS'intent'
p2090
aS'outlook'
p2091
aS'protests'
p2092
aS'involvement'
p2093
aS'Storm'
p2094
aS'operator'
p2095
aS'watchdog'
p2096
aS'your'
p2097
aS'intervention'
p2098
aS'prepare'
p2099
aS'area'
p2100
aS'aren'
p2101
aS'qualifying'
p2102
aS'Hotel'
p2103
aS'start'
p2104
aS'low'
p2105
aS'lot'
p2106
aS'J'
aS'delayed'
p2107
aS'trying'
p2108
aS'hire'
p2109
aS'fraud'
p2110
aS'improved'
p2111
aS'600'
p2112
aS'describe'
p2113
aS'moved'
p2114
aS'sales'
p2115
aS'moves'
p2116
aS'hospitals'
p2117
aS'innings'
p2118
aS'Jake'
p2119
aS'storage'
p2120
aS'you'
p2121
aS'forcing'
p2122
aS'Las'
p2123
aS'poor'
p2124
aS'Great'
p2125
aS'peak'
p2126
aS'coverage'
p2127
aS'pool'
p2128
aS'building'
p2129
aS'Mexican'
p2130
aS'Executive'
p2131
aS'overseas'
p2132
aS'since'
p2133
aS'pointing'
p2134
aS'month'
p2135
aS'deadline'
p2136
aS'religious'
p2137
aS'carpet'
p2138
aS'Brown'
p2139
aS'referring'
p2140
aS'pledged'
p2141
aS'dominated'
p2142
aS'very'
p2143
aS'horror'
p2144
aS'decide'
p2145
aS'--'
p2146
aS'study'
p2147
aS'fence'
p2148
aS'streets'
p2149
aS'Korea'
p2150
aS'consumers'
p2151
aS'witnessed'
p2152
aS'investing'
p2153
aS'witnesses'
p2154
aS'learned'
p2155
aS'loose'
p2156
aS'answers'
p2157
aS'tracks'
p2158
aS'excess'
p2159
aS'strong'
p2160
aS'Jews'
p2161
aS'conviction'
p2162
aS'inspired'
p2163
aS'losses'
p2164
aS'soldier'
p2165
aS'amount'
p2166
aS'advertising'
p2167
aS'trainer'
p2168
aS'family'
p2169
aS'requiring'
p2170
aS'Clarke'
p2171
aS'ask'
p2172
aS'aimed'
p2173
aS'trained'
p2174
aS'conventional'
p2175
aS'takes'
p2176
aS'contains'
p2177
aS'taken'
p2178
aS'injury'
p2179
aS'St'
p2180
aS'So'
p2181
aS'broke'
p2182
aS'producing'
p2183
aS'Atlanta'
p2184
aS'helped'
p2185
aS'coalition'
p2186
aS'nine'
p2187
aS'history'
p2188
aS'adviser'
p2189
aS'pushed'
p2190
aS'species'
p2191
aS'Federation'
p2192
aS'stayed'
p2193
aS'tried'
p2194
aS'tries'
p2195
aS'Syria'
p2196
aS'a'
aS'Mexico'
p2197
aS'overnight'
p2198
aS'banks'
p2199
aS'egg'
p2200
aS'Film'
p2201
aS'help'
p2202
aS'soon'
p2203
aS'Illinois'
p2204
aS'held'
p2205
aS'committee'
p2206
aS'committed'
p2207
aS'hell'
p2208
aS'fined'
p2209
aS'actually'
p2210
aS'absence'
p2211
aS'systems'
p2212
aS'governments'
p2213
aS'fines'
p2214
aS'evening'
p2215
aS'motivated'
p2216
aS'food'
p2217
aS'anticipated'
p2218
aS'Victorian'
p2219
aS',""'
p2220
aS'foot'
p2221
aS'Senior'
p2222
aS'fully'
p2223
aS'stopped'
p2224
aS'Council'
p2225
aS'referred'
p2226
aS'heavy'
p2227
aS'ball'
p2228
aS'beyond'
p2229
aS'event'
p2230
aS'surrounded'
p2231
aS'safety'
p2232
aS'7'
aS'issue'
p2233
aS'Town'
p2234
aS'According'
p2235
aS'pub'
p2236
aS'houses'
p2237
aS'reason'
p2238
aS'base'
p2239
aS'put'
p2240
aS'Researchers'
p2241
aS'bring'
p2242
aS'launch'
p2243
aS'Boston'
p2244
aS'terrible'
p2245
aS'caption'
p2246
aS'expecting'
p2247
aS'reflected'
p2248
aS'unexpected'
p2249
aS'miss'
p2250
aS'horse'
p2251
aS'wonderful'
p2252
aS'expand'
p2253
aS'scheme'
p2254
aS'selling'
p2255
aS'storm'
p2256
aS'trapped'
p2257
aS'authors'
p2258
aS'assaulted'
p2259
aS'grey'
p2260
aS'Officials'
p2261
aS'store'
p2262
aS'toward'
p2263
aS'sentenced'
p2264
aS'deciding'
p2265
aS'Defence'
p2266
aS'God'
p2267
aS'alongside'
p2268
aS'substantial'
p2269
aS'sentences'
p2270
aS'Gov'
p2271
aS'vulnerable'
p2272
aS'ratings'
p2273
aS'Price'
p2274
aS'officers'
p2275
aS'labour'
p2276
aS'With'
p2277
aS'towards'
p2278
aS'Kentucky'
p2279
aS'Chief'
p2280
aS'hired'
p2281
aS'sponsored'
p2282
aS'The'
p2283
aS'approved'
p2284
aS'salary'
p2285
aS'Bridge'
p2286
aS'mobile'
p2287
aS'performances'
p2288
aS'clear'
p2289
aS'popularity'
p2290
aS'clean'
p2291
aS'latest'
p2292
aS'phenomenon'
p2293
aS'celebrities'
p2294
aS'Islamist'
p2295
aS'northern'
p2296
aS'justice'
p2297
aS'French'
p2298
aS'flights'
p2299
aS'pretty'
p2300
aS'circle'
p2301
aS'Michelle'
p2302
aS'dominant'
p2303
aS'meanwhile'
p2304
aS'trees'
p2305
aS'famous'
p2306
aS'feels'
p2307
aS'grew'
p2308
aS'competing'
p2309
aS'during'
p2310
aS'interim'
p2311
aS'recommendations'
p2312
aS'throwing'
p2313
aS'France'
p2314
aS'culture'
p2315
aS'protecting'
p2316
aS'Emma'
p2317
aS'locals'
p2318
aS'pictures'
p2319
aS'Blair'
p2320
aS'Park'
p2321
aS'won'
p2322
aS'probably'
p2323
aS'conditions'
p2324
aS'pictured'
p2325
aS'missing'
p2326
aS'ranked'
p2327
aS'both'
p2328
aS'minorities'
p2329
aS'Steve'
p2330
aS'sensitive'
p2331
aS'forgotten'
p2332
aS'Graham'
p2333
aS'liked'
p2334
aS'yards'
p2335
aS'hackers'
p2336
aS'headed'
p2337
aS'battery'
p2338
aS'Panama'
p2339
aS'address'
p2340
aS'whatever'
p2341
aS'likes'
p2342
aS'vessel'
p2343
aS'doping'
p2344
aS'Victoria'
p2345
aS'War'
p2346
aS'described'
p2347
aS'Most'
p2348
aS'describes'
p2349
aS'California'
p2350
aS'maintenance'
p2351
aS'airstrikes'
p2352
aS'collected'
p2353
aS'territory'
p2354
aS'empty'
p2355
aS'Women'
p2356
aS'dialogue'
p2357
aS'lived'
p2358
aS'partly'
p2359
aS'wet'
p2360
aS'N'
aS'recalled'
p2361
aS'look'
p2362
aS'governor'
p2363
aS'pace'
p2364
aS'while'
p2365
aS'match'
p2366
aS'fleet'
p2367
aS'guide'
p2368
aS'pack'
p2369
aS'voters'
p2370
aS'ready'
p2371
aS'Eagles'
p2372
aS'increased'
p2373
aS'grant'
p2374
aS'Luke'
p2375
aS'grand'
p2376
aS'conflict'
p2377
aS'used'
p2378
aS'temporary'
p2379
aS'lie'
p2380
aS'bonus'
p2381
aS'000'
p2382
aS'uses'
p2383
aS'user'
p2384
aS'older'
p2385
aS'obviously'
p2386
aS'coup'
p2387
aS'quarters'
p2388
aS'Internet'
p2389
aS'useful'
p2390
aS'retirement'
p2391
aS'$'
aS'Football'
p2392
aS'guaranteed'
p2393
aS'questioned'
p2394
aS'remaining'
p2395
aS'...'
p2396
aS'march'
p2397
aS'showing'
p2398
aS'Billy'
p2399
aS'game'
p2400
aS'signal'
p2401
aS'popular'
p2402
aS'Little'
p2403
aS'creation'
p2404
aS'some'
p2405
aS'metres'
p2406
aS'urgent'
p2407
aS'trends'
p2408
aS'economic'
p2409
aS'delivered'
p2410
aS'describing'
p2411
aS'Pittsburgh'
p2412
aS'Moscow'
p2413
aS'Massachusetts'
p2414
aS'eating'
p2415
aS'Bill'
p2416
aS'stem'
p2417
aS'step'
p2418
aS'abroad'
p2419
aS'wealth'
p2420
aS'faith'
p2421
aS'Taylor'
p2422
aS'Catherine'
p2423
aS'Committee'
p2424
aS'experiences'
p2425
aS'block'
p2426
aS'seeing'
p2427
aS'within'
p2428
aS'Their'
p2429
aS'statistics'
p2430
aS'.,'
p2431
aS'.-'
p2432
aS'."'
p2433
aS'consultation'
p2434
aS'79'
p2435
aS'heritage'
p2436
aS'himself'
p2437
aS'collapsed'
p2438
aS'properly'
p2439
aS'alive'
p2440
aS'Switzerland'
p2441
aS'Irish'
p2442
aS'Twitter'
p2443
aS'Murray'
p2444
aS'Those'
p2445
aS'similar'
p2446
aS'inch'
p2447
aS'ordered'
p2448
aS'adults'
p2449
aS'doesn'
p2450
aS'To'
p2451
aS'Edward'
p2452
aS'TV'
p2453
aS'fears'
p2454
aS'application'
p2455
aS'politicians'
p2456
aS'Speaking'
p2457
aS'department'
p2458
aS'draw'
p2459
aS'reportedly'
p2460
aS'visits'
p2461
aS'regulations'
p2462
aS'AP'
p2463
aS'militants'
p2464
aS'Simpson'
p2465
aS'e'
aS'required'
p2466
aS'Al'
p2467
aS'An'
p2468
aS'depth'
p2469
aS'At'
p2470
aS'requires'
p2471
aS'go'
p2472
aS'tweeted'
p2473
aS'Award'
p2474
aS'Not'
p2475
aS'Nov'
p2476
aS'Now'
p2477
aS'friendly'
p2478
aS'Canadian'
p2479
aS'wave'
p2480
aS'telling'
p2481
aS'acres'
p2482
aS'Charlotte'
p2483
aS'Brisbane'
p2484
aS'gender'
p2485
aS'button'
p2486
aS'verdict'
p2487
aS'jump'
p2488
aS'picked'
p2489
aS'plays'
p2490
aS'cell'
p2491
aS'experiment'
p2492
aS';'
aS'America'
p2493
aS'stance'
p2494
aS'CCTV'
p2495
aS'following'
p2496
aS'Green'
p2497
aS'copyright'
p2498
aS'Palace'
p2499
aS'Back'
p2500
aS'products'
p2501
aS'Arabia'
p2502
aS'Blake'
p2503
aS'danger'
p2504
aS'pitch'
p2505
aS'win'
p2506
aS'manage'
p2507
aS'addressed'
p2508
aS'singing'
p2509
aS'cloud'
p2510
aS'remains'
p2511
aS'camera'
p2512
aS'vehicle'
p2513
aS'stage'
p2514
aS'reflects'
p2515
aS'formally'
p2516
aS'started'
p2517
aS'Denmark'
p2518
aS'benchmark'
p2519
aS'Wednesday'
p2520
aS'missile'
p2521
aS'appointed'
p2522
aS'150'
p2523
aS'announcing'
p2524
aS'sanctions'
p2525
aS'ride'
p2526
aS'recession'
p2527
aS'Birmingham'
p2528
aS'meet'
p2529
aS'Nevada'
p2530
aS'control'
p2531
aS'Israeli'
p2532
aS'links'
p2533
aS'providers'
p2534
aS'escaped'
p2535
aS'pulling'
p2536
aS'sought'
p2537
aS'HIV'
p2538
aS'located'
p2539
aS'NHS'
p2540
aS'farm'
p2541
aS'British'
p2542
aS'Mrs'
p2543
aS'Roman'
p2544
aS'While'
p2545
aS'Middle'
p2546
aS'Guard'
p2547
aS'advocates'
p2548
aS'agenda'
p2549
aS'healthcare'
p2550
aS'software'
p2551
aS'fastest'
p2552
aS'Wilson'
p2553
aS'Smith'
p2554
aS'offences'
p2555
aS'including'
p2556
aS'cruise'
p2557
aS'mentioned'
p2558
aS'emails'
p2559
aS'Celtic'
p2560
aS'Miami'
p2561
aS'auto'
p2562
aS'iPhone'
p2563
aS'hands'
p2564
aS'front'
p2565
aS'kilometres'
p2566
aS'Supreme'
p2567
aS'Iraqi'
p2568
aS'university'
p2569
aS'guard'
p2570
aS'magnitude'
p2571
aS'crossing'
p2572
aS'female'
p2573
aS'globe'
p2574
aS'700'
p2575
aS'measure'
p2576
aS'special'
p2577
aS'entertainment'
p2578
aS'CEO'
p2579
aS'critics'
p2580
aS'activist'
p2581
aS'cause'
p2582
aS'delegates'
p2583
aS'attending'
p2584
aS'completely'
p2585
aS'conservatives'
p2586
aS'route'
p2587
aS'keep'
p2588
aS'keen'
p2589
aS'powerful'
p2590
aS'improving'
p2591
aS'1989'
p2592
aS'quality'
p2593
aS'Boris'
p2594
aS'management'
p2595
aS'privacy'
p2596
aS'data'
p2597
aS'relations'
p2598
aS'attack'
p2599
aS'ankle'
p2600
aS'perfectly'
p2601
aS'tourists'
p2602
aS'exactly'
p2603
aS'lists'
p2604
aS'chemicals'
p2605
aS'R'
aS'overwhelming'
p2606
aS'herself'
p2607
aS'photograph'
p2608
aS'submitted'
p2609
aS'Series'
p2610
aS'Oval'
p2611
aS'providing'
p2612
aS'Information'
p2613
aS'Richard'
p2614
aS'Other'
p2615
aS'close'
p2616
aS'need'
p2617
aS'border'
p2618
aS'Development'
p2619
aS'able'
p2620
aS'instance'
p2621
aS'relatives'
p2622
aS'so'
p2623
aS'medals'
p2624
aS'connected'
p2625
aS'gallery'
p2626
aS'consequences'
p2627
aS'upset'
p2628
aS'proceedings'
p2629
aS'1995'
p2630
aS'businessman'
p2631
aS'impression'
p2632
aS'emerging'
p2633
aS'Ian'
p2634
aS'anyway'
p2635
aS'soldiers'
p2636
aS'Public'
p2637
aS'partners'
p2638
aS'based'
p2639
aS'earned'
p2640
aS'('
aS'winner'
p2641
aS'hopeful'
p2642
aS'employer'
p2643
aS'employee'
p2644
aS'employed'
p2645
aS'achieve'
p2646
aS'overall'
p2647
aS'120'
p2648
aS'joint'
p2649
aS'legitimate'
p2650
aS'On'
p2651
aS'procedures'
p2652
aS'Italian'
p2653
aS'processes'
p2654
aS'tobacco'
p2655
aS'hiring'
p2656
aS'she'
p2657
aS'contain'
p2658
aS'grab'
p2659
aS'spotted'
p2660
aS'shake'
p2661
aS'humans'
p2662
aS'immigrant'
p2663
aS'legacy'
p2664
aS'desperate'
p2665
aS'operated'
p2666
aS'Good'
p2667
aS'Wisconsin'
p2668
aS'tend'
p2669
aS'written'
p2670
aS'Harvard'
p2671
aS'tens'
p2672
aS'neither'
p2673
aS'importance'
p2674
aS'kicking'
p2675
aS'key'
p2676
aS'approval'
p2677
aS'problem'
p2678
aS'thank'
p2679
aS'hits'
p2680
aS'limits'
p2681
aS'career'
p2682
aS'minds'
p2683
aS'admit'
p2684
aS'Woods'
p2685
aS'Los'
p2686
aS'Music'
p2687
aS'quit'
p2688
aS'addition'
p2689
aS'discrimination'
p2690
aS'Yahoo'
p2691
aS'cent'
p2692
aS'slowly'
p2693
aS'treat'
p2694
aS'controlled'
p2695
aS'league'
p2696
aS'releasing'
p2697
aS'tweets'
p2698
aS'World'
p2699
aS'smoking'
p2700
aS'And'
p2701
aS'smartphones'
p2702
aS'harder'
p2703
aS'owns'
p2704
aS'Any'
p2705
aS'resident'
p2706
aS'Shanghai'
p2707
aS'surface'
p2708
aS'examined'
p2709
aS'You'
p2710
aS'capture'
p2711
aS'Protection'
p2712
aS'began'
p2713
aS'strange'
p2714
aS'speaker'
p2715
aS'underground'
p2716
aS'party'
p2717
aS'appearances'
p2718
aS'effect'
p2719
aS'fierce'
p2720
aS'frequently'
p2721
aS'indigenous'
p2722
aS'Mitchell'
p2723
aS'destruction'
p2724
aS'lunch'
p2725
aS'i'
aS'well'
p2726
aS'drone'
p2727
aS'trials'
p2728
aS'restore'
p2729
aS'45'
p2730
aS'increasingly'
p2731
aS'claiming'
p2732
aS'accurate'
p2733
aS'43'
p2734
aS'sources'
p2735
aS'Sunday'
p2736
aS'mistakes'
p2737
aS'virtual'
p2738
aS'Turkish'
p2739
aS'Despite'
p2740
aS'warrant'
p2741
aS'By'
p2742
aS'kick'
p2743
aS'fate'
p2744
aS'historic'
p2745
aS'Nelson'
p2746
aS'burden'
p2747
aS'immediately'
p2748
aS'prominent'
p2749
aS'loss'
p2750
aS'England'
p2751
aS'lost'
p2752
aS'ring'
p2753
aS'sized'
p2754
aS'payments'
p2755
aS'lose'
p2756
aS'Polish'
p2757
aS'refugees'
p2758
aS'page'
p2759
aS'shed'
p2760
aS'library'
p2761
aS'home'
p2762
aS'broad'
p2763
aS'However'
p2764
aS'Bryant'
p2765
aS'reaching'
p2766
aS'journal'
p2767
aS'Up'
p2768
aS'expansion'
p2769
aS'Microsoft'
p2770
aS'freedom'
p2771
aS'recognized'
p2772
aS'UN'
p2773
aS'UK'
p2774
aS'equally'
p2775
aS'previously'
p2776
aS'artists'
p2777
aS'accused'
p2778
aS'additional'
p2779
aS'Lawrence'
p2780
aS'museum'
p2781
aS'noticed'
p2782
aS'Vegas'
p2783
aS'inner'
p2784
aS'inspiration'
p2785
aS'cricket'
p2786
aS'north'
p2787
aS'Coalition'
p2788
aS'goals'
p2789
aS'courts'
p2790
aS'highest'
p2791
aS'eat'
p2792
aS'he'
p2793
aS'cells'
p2794
aS'hosting'
p2795
aS'signed'
p2796
aS'converted'
p2797
aS'stories'
p2798
aS'piece'
p2799
aS'display'
p2800
aS'urging'
p2801
aS'Lake'
p2802
aS'education'
p2803
aS'Geneva'
p2804
aS'contest'
p2805
aS'offensive'
p2806
aS'Wells'
p2807
aS'star'
p2808
aS'Like'
p2809
aS'Ken'
p2810
aS'stay'
p2811
aS'Morgan'
p2812
aS'else'
p2813
aS'friends'
p2814
aS'portion'
p2815
aS'diagnosis'
p2816
aS'Spanish'
p2817
aS'lives'
p2818
aS'protest'
p2819
aS'aides'
p2820
aS'Bailey'
p2821
aS'captain'
p2822
aS'whose'
p2823
aS'Liverpool'
p2824
aS'disability'
p2825
aS'seriously'
p2826
aS'presents'
p2827
aS'teaching'
p2828
aS'sorry'
p2829
aS'updated'
p2830
aS'rescue'
p2831
aS'reforms'
p2832
aS'affect'
p2833
aS'vast'
p2834
aS'Thomas'
p2835
aS'skills'
p2836
aS'companies'
p2837
aS'solution'
p2838
aS'ups'
p2839
aS'clothes'
p2840
aS'Raiders'
p2841
aS'force'
p2842
aS'Christie'
p2843
aS'across'
p2844
aS'likely'
p2845
aS'implemented'
p2846
aS'even'
p2847
aS'Arizona'
p2848
aS'integrity'
p2849
aS'Merkel'
p2850
aS'spokesman'
p2851
aS'lights'
p2852
aS'new'
p2853
aS'net'
p2854
aS'ever'
p2855
aS'deemed'
p2856
aS'Greens'
p2857
aS'never'
p2858
aS'drew'
p2859
aS'met'
p2860
aS'possibility'
p2861
aS'active'
p2862
aS'Ohio'
p2863
aS'100'
p2864
aS'dry'
p2865
aS'credit'
p2866
aS'Qaeda'
p2867
aS'fantastic'
p2868
aS'campaign'
p2869
aS'Rather'
p2870
aS'county'
p2871
aS'Also'
p2872
aS'moral'
p2873
aS'guests'
p2874
aS'counts'
p2875
aS'landscape'
p2876
aS'criminals'
p2877
aS'army'
p2878
aS'arms'
p2879
aS'call'
p2880
aS'calm'
p2881
aS'survive'
p2882
aS'type'
p2883
aS'tell'
p2884
aS'supporters'
p2885
aS'Rams'
p2886
aS'warn'
p2887
aS'warm'
p2888
aS'adult'
p2889
aS'V'
aS'room'
p2890
aS'rights'
p2891
aS'roof'
p2892
aS'movies'
p2893
aS'give'
p2894
aS'involve'
p2895
aS'foods'
p2896
aS'Phoenix'
p2897
aS'amazing'
p2898
aS'Jack'
p2899
aS'answer'
p2900
aS'aboard'
p2901
aS'minority'
p2902
aS'replacing'
p2903
aS'Castro'
p2904
aS'president'
p2905
aS'purchase'
p2906
aS'All'
p2907
aS'attempt'
p2908
aS'third'
p2909
aS'Ali'
p2910
aS'Civil'
p2911
aS'maintain'
p2912
aS'frequent'
p2913
aS'operate'
p2914
aS'athletes'
p2915
aS'operations'
p2916
aS'before'
p2917
aS'scoring'
p2918
aS'personal'
p2919
aS','
aS'crew'
p2920
aS'better'
p2921
aS'Helen'
p2922
aS'weeks'
p2923
aS'overcome'
p2924
aS'donors'
p2925
aS'combination'
p2926
aS'therapy'
p2927
aS'rhetoric'
p2928
aS'meat'
p2929
aS'Indeed'
p2930
aS'arrested'
p2931
aS'victories'
p2932
aS'went'
p2933
aS'side'
p2934
aS'bone'
p2935
aS'mean'
p2936
aS'principles'
p2937
aS'taught'
p2938
aS'trading'
p2939
aS'lawyers'
p2940
aS'crucial'
p2941
aS'content'
p2942
aS'surprise'
p2943
aS'delegate'
p2944
aS'turning'
p2945
aS'struggle'
p2946
aS'Clinton'
p2947
aS'starts'
p2948
aS'messages'
p2949
aS'isn'
p2950
aS'signature'
p2951
aS'moving'
p2952
aS'loud'
p2953
aS'features'
p2954
aS'economists'
p2955
aS'grade'
p2956
aS'featured'
p2957
aS'girls'
p2958
aS'Press'
p2959
aS'gym'
p2960
aS'villages'
p2961
aS'BBC'
p2962
aS'somewhat'
p2963
aS'begins'
p2964
aS'distance'
p2965
aS'anxiety'
p2966
aS'Canberra'
p2967
aS'Craig'
p2968
aS'preparation'
p2969
aS'matter'
p2970
aS'Colin'
p2971
aS'sees'
p2972
aS'modern'
p2973
aS'mind'
p2974
aS'mining'
p2975
aS'seen'
p2976
aS'seem'
p2977
aS'seek'
p2978
aS'tells'
p2979
aS'Egyptian'
p2980
aS'chest'
p2981
aS'quarterback'
p2982
aS'regular'
p2983
aS'Alabama'
p2984
aS'Bernie'
p2985
aS'Attorney'
p2986
aS'don'
p2987
aS'alarm'
p2988
aS'm'
aS'dog'
p2989
aS'competitors'
p2990
aS'definitely'
p2991
aS'principle'
p2992
aS'consumer'
p2993
aS'selected'
p2994
aS'ambassador'
p2995
aS'probe'
p2996
aS'ending'
p2997
aS'attempts'
p2998
aS'thirds'
p2999
aS'judges'
p3000
aS'Sept'
p3001
aS'explain'
p3002
aS'Game'
p3003
aS'Free'
p3004
aS'sugar'
p3005
aS'Others'
p3006
aS'jailed'
p3007
aS'wearing'
p3008
aS'exports'
p3009
aS'stop'
p3010
aS'coast'
p3011
aS'Leave'
p3012
aS'Organization'
p3013
aS'reviewed'
p3014
aS'earn'
p3015
aS'bar'
p3016
aS'fields'
p3017
aS'Over'
p3018
aS'Washington'
p3019
aS'bag'
p3020
aS'bad'
p3021
aS'ban'
p3022
aS'District'
p3023
aS'Hospital'
p3024
aS'testing'
p3025
aS'decided'
p3026
aS'Sydney'
p3027
aS'subject'
p3028
aS'00'
p3029
aS'said'
p3030
aS'artificial'
p3031
aS'sorts'
p3032
aS'C'
aS'Central'
p3033
aS'picking'
p3034
aS'suggested'
p3035
aS'McDonald'
p3036
aS'uncertainty'
p3037
aS'against'
p3038
aS'contribution'
p3039
aS'Syrian'
p3040
aS'Given'
p3041
aS'appeared'
p3042
aS'20s'
p3043
aS'height'
p3044
aS'initiative'
p3045
aS'Forest'
p3046
aS'aftermath'
p3047
aS'targeting'
p3048
aS'asks'
p3049
aS'basis'
p3050
aS'referendum'
p3051
aS'tiny'
p3052
aS'commission'
p3053
aS'trigger'
p3054
aS'interest'
p3055
aS'basic'
p3056
aS'entered'
p3057
aS'lovely'
p3058
aS'threw'
p3059
aS'website'
p3060
aS'Georgia'
p3061
aS'deeper'
p3062
aS'marijuana'
p3063
aS'Stuart'
p3064
aS'tank'
p3065
aS'economies'
p3066
aS'near'
p3067
aS'balance'
p3068
aS'employees'
p3069
aS'seven'
p3070
aS'is'
p3071
aS'it'
p3072
aS'defeated'
p3073
aS'shame'
p3074
aS'in'
p3075
aS'if'
p3076
aS'grown'
p3077
aS'bottles'
p3078
aS'make'
p3079
aS'potentially'
p3080
aS'President'
p3081
aS'entitled'
p3082
aS'meets'
p3083
aS'opportunity'
p3084
aS'thoughts'
p3085
aS'kid'
p3086
aS'programs'
p3087
aS'settled'
p3088
aS'failing'
p3089
aS'practices'
p3090
aS'claims'
p3091
aS'800'
p3092
aS'investments'
p3093
aS'left'
p3094
aS'De'
p3095
aS'just'
p3096
aS'sentence'
p3097
aS'sporting'
p3098
aS'unfair'
p3099
aS'Crime'
p3100
aS'fighters'
p3101
aS'identify'
p3102
aS'human'
p3103
aS'facts'
p3104
aS'yes'
p3105
aS'yet'
p3106
aS'buyers'
p3107
aS'candidate'
p3108
aS'regarded'
p3109
aS'character'
p3110
aS'potential'
p3111
aS'News'
p3112
aS'save'
p3113
aS'Roberts'
p3114
aS'background'
p3115
aS'wanting'
p3116
aS'dreams'
p3117
aS'shoulder'
p3118
aS'Art'
p3119
aS'performing'
p3120
aS'notorious'
p3121
aS'Prince'
p3122
aS'deal'
p3123
aS'somehow'
p3124
aS'dead'
p3125
aS'pain'
p3126
aS'normal'
p3127
aS'track'
p3128
aS'Daily'
p3129
aS'Sweden'
p3130
aS'super'
p3131
aS'magazine'
p3132
aS'afternoon'
p3133
aS'Cameron'
p3134
aS'islands'
p3135
aS'automatically'
p3136
aS'Brexit'
p3137
aS'managers'
p3138
aS'formerly'
p3139
aS'Dallas'
p3140
aS'down'
p3141
aS'lies'
p3142
aS'1990s'
p3143
aS'initial'
p3144
aS'editor'
p3145
aS'NBC'
p3146
aS'NBA'
p3147
aS'DNA'
p3148
aS'form'
p3149
aS'January'
p3150
aS'landing'
p3151
aS'failure'
p3152
aS'Jean'
p3153
aS'analyst'
p3154
aS'Golden'
p3155
aS'streaming'
p3156
aS'attached'
p3157
aS'stages'
p3158
aS'propaganda'
p3159
aS'classic'
p3160
aS'covers'
p3161
aS'sale'
p3162
aS'ship'
p3163
aS'Highway'
p3164
aS'generally'
p3165
aS'Andrew'
p3166
aS'handed'
p3167
aS'digital'
p3168
aS'Hunt'
p3169
aS'diet'
p3170
aS'journey'
p3171
aS'authorities'
p3172
aS'weekend'
p3173
aS'died'
p3174
aS'billion'
p3175
aS'happening'
p3176
aS'assume'
p3177
aS'daily'
p3178
aS'Second'
p3179
aS'teeth'
p3180
aS'profits'
p3181
aS'managed'
p3182
aS'manager'
p3183
aS'mile'
p3184
aS'skin'
p3185
aS'shot'
p3186
aS'Louisiana'
p3187
aS'milk'
p3188
aS'21st'
p3189
aS'suicide'
p3190
aS'technique'
p3191
aS'father'
p3192
aS'0'
aS'finally'
p3193
aS'praised'
p3194
aS'marks'
p3195
aS'suffered'
p3196
aS'me'
p3197
aS'smartphone'
p3198
aS'string'
p3199
aS'billionaire'
p3200
aS'advised'
p3201
aS'join'
p3202
aS'Where'
p3203
aS'1994'
p3204
aS'did'
p3205
aS'die'
p3206
aS'proposals'
p3207
aS'round'
p3208
aS'talked'
p3209
aS'dealing'
p3210
aS'Calais'
p3211
aS'Test'
p3212
aS'run'
p3213
aS'targets'
p3214
aS'adds'
p3215
aS'favour'
p3216
aS'suspect'
p3217
aS'international'
p3218
aS'filled'
p3219
aS'transportation'
p3220
aS'refused'
p3221
aS'earthquake'
p3222
aS'wait'
p3223
aS'box'
p3224
aS'boy'
p3225
aS'battling'
p3226
aS'shift'
p3227
aS'diagnosed'
p3228
aS'suggestion'
p3229
aS'Technology'
p3230
aS'teenage'
p3231
aS'elect'
p3232
aS'merely'
p3233
aS'When'
p3234
aS'hotels'
p3235
aS'everybody'
p3236
aS'Australia'
p3237
aS'troops'
p3238
aS'visit'
p3239
aS'Russia'
p3240
aS'Awards'
p3241
aS'sharing'
p3242
aS'Ben'
p3243
aS'downtown'
p3244
aS'Brad'
p3245
aS'effort'
p3246
aS'fly'
p3247
aS'Duke'
p3248
aS'soul'
p3249
aS'Pacific'
p3250
aS'reviews'
p3251
aS'growing'
p3252
aS'making'
p3253
aS'arrive'
p3254
aS'Children'
p3255
aS'claim'
p3256
aS'crazy'
p3257
aS'predict'
p3258
aS'agent'
p3259
aS'sample'
p3260
aS'council'
p3261
aS'Dutch'
p3262
aS'pink'
p3263
aS'Putin'
p3264
aS'chemical'
p3265
aS'map'
p3266
aS'staying'
p3267
aS'designer'
p3268
aS'may'
p3269
aS'membership'
p3270
aS'designed'
p3271
aS'guys'
p3272
aS'grow'
p3273
aS'man'
p3274
aS'neck'
p3275
aS'maybe'
p3276
aS'tale'
p3277
aS'Welsh'
p3278
aS'switch'
p3279
aS'jail'
p3280
aS'silence'
p3281
aS'tall'
p3282
aS'talk'
p3283
aS'shoes'
p3284
aS'pointed'
p3285
aS'argues'
p3286
aS'stability'
p3287
aS'cuts'
p3288
aS'argued'
p3289
aS'police'
p3290
aS'monitor'
p3291
aS'interesting'
p3292
aS'coaching'
p3293
aS'writers'
p3294
aS'policy'
p3295
aS'mail'
p3296
aS'main'
p3297
aS'finance'
p3298
aS'views'
p3299
aS'killer'
p3300
aS'boats'
p3301
aS'She'
p3302
aS'killed'
p3303
aS'developments'
p3304
aS'resignation'
p3305
aS'rock'
p3306
aS'Turnbull'
p3307
aS'Rousseff'
p3308
aS'girl'
p3309
aS'living'
p3310
aS'operates'
p3311
aS'Theresa'
p3312
aS'emerged'
p3313
aS'correct'
p3314
aS'Stone'
p3315
aS'after'
p3316
aS'G'
aS'Rights'
p3317
aS'Sometimes'
p3318
aS'advance'
p3319
aS'language'
p3320
aS'ministry'
p3321
aS'thing'
p3322
aS'think'
p3323
aS'waited'
p3324
aS'first'
p3325
aS'cheese'
p3326
aS'fleeing'
p3327
aS'Black'
p3328
aS'long'
p3329
aS'suspended'
p3330
aS'carry'
p3331
aS'sounds'
p3332
aS'little'
p3333
aS'anyone'
p3334
aS'Post'
p3335
aS'speaking'
p3336
aS'eyes'
p3337
aS'allegedly'
p3338
aS'broadcast'
p3339
aS'11'
p3340
aS'10'
p3341
aS'13'
p3342
aS'12'
p3343
aS'15'
p3344
aS'14'
p3345
aS'17'
p3346
aS'16'
p3347
aS'19'
p3348
aS'18'
p3349
aS'protected'
p3350
aS'venture'
p3351
aS'were'
p3352
aS'gathering'
p3353
aS'Court'
p3354
aS'DC'
p3355
aS'voices'
p3356
aS'conspiracy'
p3357
aS'occupied'
p3358
aS'Do'
p3359
aS'efficient'
p3360
aS'Murphy'
p3361
aS'shocked'
p3362
aS'squad'
p3363
aS'interior'
p3364
aS'performance'
p3365
aS'Dr'
p3366
aS'registered'
p3367
aS'channel'
p3368
aS'200'
p3369
aS'Rugby'
p3370
aS'theatre'
p3371
aS'investigations'
p3372
aS'arguing'
p3373
aS'paid'
p3374
aS'assault'
p3375
aS'pair'
p3376
aS'especially'
p3377
aS'surprising'
p3378
aS'diversity'
p3379
aS'shop'
p3380
aS'rating'
p3381
aS'playoffs'
p3382
aS'WA'
p3383
aS'show'
p3384
aS'Barry'
p3385
aS'contemporary'
p3386
aS'representatives'
p3387
aS'Kent'
p3388
aS'Stephen'
p3389
aS'corner'
p3390
aS'forecast'
p3391
aS'We'
p3392
aS'behind'
p3393
aS'black'
p3394
aS'deployed'
p3395
aS'Services'
p3396
aS'Fisher'
p3397
aS'awareness'
p3398
aS'ranking'
p3399
aS'get'
p3400
aS'contracts'
p3401
aS'employers'
p3402
aS'nearly'
p3403
aS'secondary'
p3404
aS'Right'
p3405
aS'yield'
p3406
aS'morning'
p3407
aS'miles'
p3408
aS'finishing'
p3409
aS'Education'
p3410
aS'declared'
p3411
aS'Grant'
p3412
aS'seat'
p3413
aS'relative'
p3414
aS'Grand'
p3415
aS'wonder'
p3416
aS'Iowa'
p3417
aS'label'
p3418
aS'enough'
p3419
aS'reading'
p3420
aS'checks'
p3421
aS'affordable'
p3422
aS'infrastructure'
p3423
aS'parent'
p3424
aS'killing'
p3425
aS'Each'
p3426
aS'dates'
p3427
aS'rugby'
p3428
aS'according'
p3429
aS'tour'
p3430
aS'traded'
p3431
aS'among'
p3432
aS'cancer'
p3433
aS'maintained'
p3434
aS'custody'
p3435
aS'considering'
p3436
aS'unusual'
p3437
aS'Assembly'
p3438
aS'capable'
p3439
aS'mark'
p3440
aS'borders'
p3441
aS'educated'
p3442
aS'shopping'
p3443
aS'offered'
p3444
aS'dramatic'
p3445
aS'wake'
p3446
aS'Hampshire'
p3447
aS'those'
p3448
aS'sound'
p3449
aS'Marshall'
p3450
aS'ongoing'
p3451
aS'many'
p3452
aS'cancelled'
p3453
aS'investigating'
p3454
aS'margin'
p3455
aS'then'
p3456
aS'coffee'
p3457
aS'sleeping'
p3458
aS'middle'
p3459
aS'Wood'
p3460
aS'protein'
p3461
aS'everyday'
p3462
aS'diseases'
p3463
aS'bags'
p3464
aS'different'
p3465
aS'harsh'
p3466
aS'doctor'
p3467
aS'pay'
p3468
aS'same'
p3469
aS'speech'
p3470
aS'arguments'
p3471
aS'struggling'
p3472
aS'extended'
p3473
aS'assist'
p3474
aS'Barcelona'
p3475
aS'running'
p3476
aS'totally'
p3477
aS'largely'
p3478
aS'roughly'
p3479
aS'amounts'
p3480
aS'solve'
p3481
aS'bottle'
p3482
aS'outdoor'
p3483
aS'money'
p3484
aS'(\xc2\xa3'
p3485
aS'Lions'
p3486
aS'rental'
p3487
aS'Margaret'
p3488
aS'4'
aS'Although'
p3489
aS'Newcastle'
p3490
aS'extensive'
p3491
aS'careers'
p3492
aS'Island'
p3493
aS'mom'
p3494
aS'disappointed'
p3495
aS'serves'
p3496
aS'server'
p3497
aS'facing'
p3498
aS'audience'
p3499
aS'London'
p3500
aS'nose'
p3501
aS'robbery'
p3502
aS'served'
p3503
aS'images'
p3504
aS'New'
p3505
aS'gross'
p3506
aS'confirm'
p3507
aS'Men'
p3508
aS'Met'
p3509
aS'critical'
p3510
aS'moderate'
p3511
aS'knife'
p3512
aS'seconds'
p3513
aS'fitness'
p3514
aS'arts'
p3515
aS'notably'
p3516
aS'broken'
p3517
aS'Vietnam'
p3518
aS'conducting'
p3519
aS'stations'
p3520
aS'island'
p3521
aS'violence'
p3522
aS'meaning'
p3523
aS'Trade'
p3524
aS'practical'
p3525
aS'airline'
p3526
aS'mixed'
p3527
aS'road'
p3528
aS'spreading'
p3529
aS'Bowl'
p3530
aS'strip'
p3531
aS'Week'
p3532
aS'Though'
p3533
aS'structure'
p3534
aS'Obama'
p3535
aS'strikes'
p3536
aS'sophisticated'
p3537
aS'Walker'
p3538
aS'romantic'
p3539
aS'Society'
p3540
aS'Eddie'
p3541
aS'emissions'
p3542
aS'Blues'
p3543
aS'leaked'
p3544
aS'videos'
p3545
aS'deep'
p3546
aS'fellow'
p3547
aS'examine'
p3548
aS'file'
p3549
aS'girlfriend'
p3550
aS'lifetime'
p3551
aS'film'
p3552
aS'fill'
p3553
aS'again'
p3554
aS'personnel'
p3555
aS'drivers'
p3556
aS'As'
p3557
aS'field'
p3558
aS'students'
p3559
aS'important'
p3560
aS'recent'
p3561
aS'tackle'
p3562
aS'Major'
p3563
aS'remote'
p3564
aS'assets'
p3565
aS'Year'
p3566
aS'resolution'
p3567
aS'represent'
p3568
aS'Van'
p3569
aS'forget'
p3570
aS'founder'
p3571
aS'Workers'
p3572
aS'dollar'
p3573
aS'founded'
p3574
aS'Wayne'
p3575
aS'talks'
p3576
aS'children'
p3577
aS'Championship'
p3578
aS'enjoying'
p3579
aS'premium'
p3580
aS'returning'
p3581
aS'fall'
p3582
aS'difference'
p3583
aS'mothers'
p3584
aS'celebrity'
p3585
aS'20th'
p3586
aS'neighborhood'
p3587
aS'Denver'
p3588
aS'Department'
p3589
aS'zero'
p3590
aS'titles'
p3591
aS'perspective'
p3592
aS'lawyer'
p3593
aS'further'
p3594
aS'Giants'
p3595
aS'defence'
p3596
aS'stood'
p3597
aS'opted'
p3598
aS'tribute'
p3599
aS'public'
p3600
aS'movement'
p3601
aS'Arena'
p3602
aS'K'
aS'promising'
p3603
aS'operating'
p3604
aS'campaigns'
p3605
aS'speeches'
p3606
aS'prosecutors'
p3607
aS'Clark'
p3608
aS'Avenue'
p3609
aS'airport'
p3610
aS'published'
p3611
aS'narrow'
p3612
aS'buses'
p3613
aS'Warriors'
p3614
aS'establish'
p3615
aS'Europe'
p3616
aS'shareholders'
p3617
aS'eye'
p3618
aS'destination'
p3619
aS'two'
p3620
aS'Corp'
p3621
aS'Boeing'
p3622
aS'Kennedy'
p3623
aS'landed'
p3624
aS'Roger'
p3625
aS'particular'
p3626
aS'town'
p3627
aS'none'
p3628
aS'hour'
p3629
aS'strain'
p3630
aS'recall'
p3631
aS'guards'
p3632
aS'remain'
p3633
aS'sudden'
p3634
aS'National'
p3635
aS'share'
p3636
aS'collision'
p3637
aS'minimum'
p3638
aS'numbers'
p3639
aS'purchased'
p3640
aS'sharp'
p3641
aS'Calif'
p3642
aS'!'
aS'needs'
p3643
aS'comfort'
p3644
aS'movements'
p3645
aS'Don'
p3646
aS'advice'
p3647
aS'par'
p3648
aS'questioning'
p3649
aS'blood'
p3650
aS'coming'
p3651
aS'Kelly'
p3652
aS'Lisa'
p3653
aS'response'
p3654
aS'entry'
p3655
aS'coal'
p3656
aS'responsibility'
p3657
aS'playing'
p3658
aS'What'
p3659
aS'radar'
p3660
aS'appeals'
p3661
aS'through'
p3662
aS'existence'
p3663
aS'suffer'
p3664
aS'Texas'
p3665
aS'24'
p3666
aS'25'
p3667
aS'26'
p3668
aS'27'
p3669
aS'20'
p3670
aS'21'
p3671
aS'22'
p3672
aS'23'
p3673
aS'28'
p3674
aS'29'
p3675
aS'late'
p3676
aS'good'
p3677
aS'seeking'
p3678
aS'Bay'
p3679
aS'walls'
p3680
aS'stepped'
p3681
aS'viewers'
p3682
aS'mystery'
p3683
aS'easily'
p3684
aS'pregnant'
p3685
aS'Potter'
p3686
aS'positions'
p3687
aS'harm'
p3688
aS'everyone'
p3689
aS'mental'
p3690
aS'house'
p3691
aS'fish'
p3692
aS'hard'
p3693
aS'idea'
p3694
aS'engaging'
p3695
aS'oil'
p3696
aS'connect'
p3697
aS'insurance'
p3698
aS'stands'
p3699
aS'funding'
p3700
aS'participants'
p3701
aS'longtime'
p3702
aS'Cook'
p3703
aS'Ukraine'
p3704
aS'difficulty'
p3705
aS'members'
p3706
aS'EU'
p3707
aS'beginning'
p3708
aS'El'
p3709
aS'benefits'
p3710
aS'\xc3\xad'
p3711
aS'Evans'
p3712
aS'Ed'
p3713
aS'computers'
p3714
aS'conducted'
p3715
aS'NASA'
p3716
aS'pilots'
p3717
aS'\xc3\xa1'
p3718
aS'done'
p3719
aS'wages'
p3720
aS'divorce'
p3721
aS'least'
p3722
aS'militant'
p3723
aS'paint'
p3724
aS'regulation'
p3725
aS'statement'
p3726
aS'Belgium'
p3727
aS'compromise'
p3728
aS'Justin'
p3729
aS'park'
p3730
aS'part'
p3731
aS'doctors'
p3732
aS'believe'
p3733
aS'Xi'
p3734
aS'gotten'
p3735
aS'recording'
p3736
aS'2020'
p3737
aS'supposed'
p3738
aS'treated'
p3739
aS'Affairs'
p3740
aS'nominee'
p3741
aS'ages'
p3742
aS'aged'
p3743
aS'orders'
p3744
aS'mountain'
p3745
aS'built'
p3746
aS'Power'
p3747
aS'Ukrainian'
p3748
aS'Virginia'
p3749
aS'Arab'
p3750
aS'majority'
p3751
aS'build'
p3752
aS'Kim'
p3753
aS'province'
p3754
aS'eggs'
p3755
aS'Hawaii'
p3756
aS'Governor'
p3757
aS'most'
p3758
aS'significant'
p3759
aS'services'
p3760
aS'extremely'
p3761
aS'Egypt'
p3762
aS'humanitarian'
p3763
aS'km'
p3764
aS'Robinson'
p3765
aS'joining'
p3766
aS'sector'
p3767
aS'particularly'
p3768
aS'rebels'
p3769
aS'businesses'
p3770
aS'Hill'
p3771
aS'carefully'
p3772
aS'headlines'
p3773
aS'fine'
p3774
aS'find'
p3775
aS'giant'
p3776
aS'nervous'
p3777
aS'19th'
p3778
aS'8'
aS'Adelaide'
p3779
aS'permission'
p3780
aS'express'
p3781
aS'cheaper'
p3782
aS'breast'
p3783
aS'theft'
p3784
aS'resolve'
p3785
aS'doubled'
p3786
aS'common'
p3787
aS'restaurants'
p3788
aS'Wright'
p3789
aS'individual'
p3790
aS'feared'
p3791
aS'expert'
p3792
aS'visiting'
p3793
aS'electoral'
p3794
aS'fans'
p3795
aS'Osborne'
p3796
aS'Terry'
p3797
aS'burned'
p3798
aS'King'
p3799
aS'historical'
p3800
aS'commercial'
p3801
aS'aircraft'
p3802
aS'reverse'
p3803
aS'restaurant'
p3804
aS'annual'
p3805
aS'foreign'
p3806
aS'Mosul'
p3807
aS'focused'
p3808
aS'Yes'
p3809
aS'Yet'
p3810
aS'point'
p3811
aS'simple'
p3812
aS'simply'
p3813
aS'throughout'
p3814
aS'expensive'
p3815
aS'raise'
p3816
aS'create'
p3817
aS'rivals'
p3818
aS'secret'
p3819
aS'dropping'
p3820
aS'meeting'
p3821
aS'gay'
p3822
aS'gas'
p3823
aS'gap'
p3824
aS'understand'
p3825
aS'prices'
p3826
aS'politician'
p3827
aS'raw'
p3828
aS'solid'
p3829
aS'bill'
p3830
aS'elections'
p3831
aS'College'
p3832
aS'fun'
p3833
aS'Khan'
p3834
aS'century'
p3835
aS'cents'
p3836
aS'itself'
p3837
aS'Easter'
p3838
aS'CBS'
p3839
aS'complaints'
p3840
aS'development'
p3841
aS'yesterday'
p3842
aS'moment'
p3843
aS'purpose'
p3844
aS'genuine'
p3845
aS'task'
p3846
aS'spent'
p3847
aS'Economic'
p3848
aS'landmark'
p3849
aS'organization'
p3850
aS'spend'
p3851
aS'isolated'
p3852
aS'shape'
p3853
aS'openly'
p3854
aS'alternative'
p3855
aS'injuries'
p3856
aS'wage'
p3857
aS'cut'
p3858
aS'cup'
p3859
aS'source'
p3860
aS'deliberately'
p3861
aS'excited'
p3862
aS'bin'
p3863
aS'big'
p3864
aS'bid'
p3865
aS'Commons'
p3866
aS'matters'
p3867
aS'bit'
p3868
aS'knock'
p3869
aS'semi'
p3870
aS'follows'
p3871
aS'Bradley'
p3872
aS'indication'
p3873
aS'Management'
p3874
aS'often'
p3875
aS'Gulf'
p3876
aS'absolutely'
p3877
aS'back'
p3878
aS'extremist'
p3879
aS'strongest'
p3880
aS'ourselves'
p3881
aS'scale'
p3882
aS'pet'
p3883
aS'affects'
p3884
aS'decision'
p3885
aS'per'
p3886
aS'either'
p3887
aS'patient'
p3888
aS'retailers'
p3889
aS'remembered'
p3890
aS'continuing'
p3891
aS'use'
p3892
aS'O'
aS'David'
p3893
aS'Davis'
p3894
aS'Bob'
p3895
aS'goods'
p3896
aS'drama'
p3897
aS'involving'
p3898
aS'pollution'
p3899
aS'retailer'
p3900
aS'infected'
p3901
aS'forward'
p3902
aS'opponent'
p3903
aS'immigration'
p3904
aS'hoped'
p3905
aS'boys'
p3906
aS'hopes'
p3907
aS'directed'
p3908
aS'Beijing'
p3909
aS'Bennett'
p3910
aS'planet'
p3911
aS'planes'
p3912
aS'recognition'
p3913
aS'sort'
p3914
aS'constant'
p3915
aS'Perhaps'
p3916
aS'flow'
p3917
aS'Cross'
p3918
aS'single'
p3919
aS'Land'
p3920
aS'Commissioner'
p3921
aS'%'
aS'May'
p3922
aS'Max'
p3923
aS'Andrews'
p3924
aS'becomes'
p3925
aS'Man'
p3926
aS'explaining'
p3927
aS'favourite'
p3928
aS'prepared'
p3929
aS'desert'
p3930
aS'vehicles'
p3931
aS'notion'
p3932
aS'2002'
p3933
aS'2003'
p3934
aS'2000'
p3935
aS'2001'
p3936
aS'2006'
p3937
aS'Asian'
p3938
aS'2004'
p3939
aS'2005'
p3940
aS'2008'
p3941
aS'2009'
p3942
aS'Saint'
p3943
aS'Business'
p3944
aS'helps'
p3945
aS'officials'
p3946
aS'fatal'
p3947
aS'putting'
p3948
aS'entire'
p3949
aS'shock'
p3950
aS'Defense'
p3951
aS'ceasefire'
p3952
aS'Turkey'
p3953
aS'Howard'
p3954
aS'Long'
p3955
aS'Norway'
p3956
aS'depression'
p3957
aS'giving'
p3958
aS'Hammond'
p3959
aS'access'
p3960
aS'crossed'
p3961
aS'exercise'
p3962
aS'body'
p3963
aS'exchange'
p3964
aS'Professor'
p3965
aS'objects'
p3966
aS'others'
p3967
aS'safer'
p3968
aS'extreme'
p3969
aS'39'
p3970
aS'38'
p3971
aS'talent'
p3972
aS'Chinese'
p3973
aS'33'
p3974
aS'32'
p3975
aS'31'
p3976
aS'30'
p3977
aS'37'
p3978
aS'36'
p3979
aS'35'
p3980
aS'Jennifer'
p3981
aS'Big'
p3982
aS'climb'
p3983
aS'proof'
p3984
aS'honor'
p3985
aS'named'
p3986
aS'private'
p3987
aS'FA'
p3988
aS'privately'
p3989
aS'Brazilian'
p3990
aS'scandal'
p3991
aS'themselves'
p3992
aS'upcoming'
p3993
aS'trail'
p3994
aS'train'
p3995
aS'account'
p3996
aS'obvious'
p3997
aS'praise'
p3998
aS'industrial'
p3999
aS'closing'
p4000
aS'Panthers'
p4001
aS'effectively'
p4002
aS'native'
p4003
aS'democracy'
p4004
aS'holds'
p4005
aS'regions'
p4006
aS'winners'
p4007
aS'forest'
p4008
aS'Authorities'
p4009
aS'stock'
p4010
aS'profile'
p4011
aS'buildings'
p4012
aS'ABC'
p4013
aS'waters'
p4014
aS'collection'
p4015
aS'lines'
p4016
aS'chief'
p4017
aS'Tennessee'
p4018
aS'addiction'
p4019
aS'lined'
p4020
aS'wedding'
p4021
aS'Minnesota'
p4022
aS'industries'
p4023
aS'll'
p4024
aS'labor'
p4025
aS'Director'
p4026
aS'age'
p4027
aS'willing'
p4028
aS'criminal'
p4029
aS'dad'
p4030
aS'\xe2\x82\xac'
p4031
aS'greater'
p4032
aS'spell'
p4033
aS'mention'
p4034
aS'cutting'
p4035
aS'day'
p4036
aS'airports'
p4037
aS'warned'
p4038
aS'identified'
p4039
aS'Gary'
p4040
aS'experienced'
p4041
aS'From'
p4042
aS'sexual'
p4043
aS'defend'
p4044
aS'mate'
p4045
aS'China'
p4046
aS'red'
p4047
aS'Erdogan'
p4048
aS'approached'
p4049
aS'Senator'
p4050
aS'yard'
p4051
aS'Madrid'
p4052
aS'chicken'
p4053
aS'barriers'
p4054
aS'retain'
p4055
aS'retail'
p4056
aS'south'
p4057
aS'Administration'
p4058
aS'strategic'
p4059
aS'improvements'
p4060
aS'reached'
p4061
aS'ancient'
p4062
aS'Coast'
p4063
aS'Association'
p4064
aS'Lincoln'
p4065
aS'gear'
p4066
aS'explanation'
p4067
aS'nobody'
p4068
aS'environmental'
p4069
aS'loved'
p4070
aS'compensation'
p4071
aS'visited'
p4072
aS'comfortable'
p4073
aS'unlikely'
p4074
aS'have'
p4075
aS'dementia'
p4076
aS'apparently'
p4077
aS'Oil'
p4078
aS'Goldman'
p4079
aS'mid'
p4080
aS'parks'
p4081
aS'Xinhua'
p4082
aS'mix'
p4083
aS'concerns'
p4084
aS'Santa'
p4085
aS'unless'
p4086
aS'Without'
p4087
aS'eight'
p4088
aS'preliminary'
p4089
aS'striker'
p4090
aS'payment'
p4091
aS'gather'
p4092
aS'Some'
p4093
aS'disease'
p4094
aS'Donald'
p4095
aS'occasion'
p4096
aS'normally'
p4097
aS'Saturday'
p4098
aS'selection'
p4099
aS'text'
p4100
aS'supported'
p4101
aS'portfolio'
p4102
aS'supporter'
p4103
aS'staff'
p4104
aS'grabbed'
p4105
aS'knowledge'
p4106
aS'controls'
p4107
aS'York'
p4108
aS'regularly'
p4109
aS'beat'
p4110
aS'bear'
p4111
aS'timing'
p4112
aS'areas'
p4113
aS'calling'
p4114
aS'Broadway'
p4115
aS'fixed'
p4116
aS'national'
p4117
aS'Zoo'
p4118
aS'Interior'
p4119
aS'intensity'
p4120
aS'attempting'
p4121
aS'pattern'
p4122
aS'difficulties'
p4123
aS'routine'
p4124
aS'progress'
p4125
aS'July'
p4126
aS'deliver'
p4127
aS'S'
aS'Islands'
p4128
aS'joke'
p4129
aS'taking'
p4130
aS'equal'
p4131
aS'trips'
p4132
aS'passing'
p4133
aS'otherwise'
p4134
aS'comment'
p4135
aS'relevant'
p4136
aS'laugh'
p4137
aS'earning'
p4138
aS'USA'
p4139
aS'Hollande'
p4140
aS'Brooklyn'
p4141
aS'attends'
p4142
aS'Thailand'
p4143
aS'proposal'
p4144
aS'Center'
p4145
aS'climate'
p4146
aS'Nations'
p4147
aS'finished'
p4148
aS'general'
p4149
aS'volunteer'
p4150
aS'Jose'
p4151
aS'homes'
p4152
aS'multi'
p4153
aS'appearance'
p4154
aS'value'
p4155
aS'General'
p4156
aS'promoted'
p4157
aS'almost'
p4158
aS'respected'
p4159
aS'arrangements'
p4160
aS'claimed'
p4161
aS'partner'
p4162
aS'Beach'
p4163
aS'Garden'
p4164
aS')'
aS'administration'
p4165
aS'injured'
p4166
aS'material'
p4167
aS'reporting'
p4168
aS'Airport'
p4169
aS'II'
p4170
aS'sisters'
p4171
aS'judgment'
p4172
aS'center'
p4173
aS'Senate'
p4174
aS'weapon'
p4175
aS'thought'
p4176
aS'sets'
p4177
aS'position'
p4178
aS'muscle'
p4179
aS'usual'
p4180
aS'stores'
p4181
aS'executive'
p4182
aS'domestic'
p4183
aS'clinic'
p4184
aS'underlying'
p4185
aS'seats'
p4186
aS'tone'
p4187
aS'ads'
p4188
aS'Friday'
p4189
aS'YouTube'
p4190
aS'bench'
p4191
aS'add'
p4192
aS'Taliban'
p4193
aS'citizen'
p4194
aS'smart'
p4195
aS'tests'
p4196
aS'Officer'
p4197
aS'displaced'
p4198
aS'like'
p4199
aS'success'
p4200
aS'admitted'
p4201
aS'journalist'
p4202
aS'works'
p4203
aS'soft'
p4204
aS'authority'
p4205
aS'hair'
p4206
aS'proper'
p4207
aS'happens'
p4208
aS'Mike'
p4209
aS'encouraging'
p4210
aS'shelter'
p4211
aS'noise'
p4212
aS'Baker'
p4213
aS'host'
p4214
aS'although'
p4215
aS'panel'
p4216
aS'about'
p4217
aS'actual'
p4218
aS'December'
p4219
aS'Japan'
p4220
aS'introduced'
p4221
aS'Mayor'
p4222
aS'!"'
p4223
aS'Two'
p4224
aS'billions'
p4225
aS'chronic'
p4226
aS'playoff'
p4227
aS'Stadium'
p4228
aS'Scientists'
p4229
aS'midfielder'
p4230
aS'rushed'
p4231
aS'vegetables'
p4232
aS'awarded'
p4233
aS'biggest'
p4234
aS'November'
p4235
aS'buy'
p4236
aS'bus'
p4237
aS'brand'
p4238
aS'but'
p4239
aS'repeated'
p4240
aS'Dec'
p4241
aS'Wall'
p4242
aS'dangerous'
p4243
aS'minutes'
p4244
aS'deaths'
p4245
aS'periods'
p4246
aS'shooting'
p4247
aS'campus'
p4248
aS'48'
p4249
aS'49'
p4250
aS'46'
p4251
aS'47'
p4252
aS'44'
p4253
aS'attacked'
p4254
aS'42'
p4255
aS'detail'
p4256
aS'40'
p4257
aS'41'
p4258
aS'Pennsylvania'
p4259
aS'out'
p4260
aS'April'
p4261
aS'Act'
p4262
aS'Stewart'
p4263
aS'starting'
p4264
aS'limited'
p4265
aS'facilities'
p4266
aS'sleep'
p4267
aS'Communist'
p4268
aS'hate'
p4269
aS'tweet'
p4270
aS'under'
p4271
aS'pride'
p4272
aS'@'
aS'risk'
p4273
aS'rise'
p4274
aS'every'
p4275
aS'Henry'
p4276
aS'encounter'
p4277
aS'school'
p4278
aS'Premier'
p4279
aS'venue'
p4280
aS'Station'
p4281
aS'Go'
p4282
aS'enjoy'
p4283
aS'leaders'
p4284
aS'Festival'
p4285
aS'consistent'
p4286
aS'guidelines'
p4287
aS'estimates'
p4288
aS'direct'
p4289
aS'surrounding'
p4290
aS'street'
p4291
aS'estimated'
p4292
aS'blue'
p4293
aS'hide'
p4294
aS'beaten'
p4295
aS'conduct'
p4296
aS'supplies'
p4297
aS'seeks'
p4298
aS'kicked'
p4299
aS'hundreds'
p4300
aS'studio'
p4301
aS'represented'
p4302
aS'path'
p4303
aS'property'
p4304
aS'auction'
p4305
aS'leaves'
p4306
aS'changed'
p4307
aS'analysts'
p4308
aS'changes'
p4309
aS'punishment'
p4310
aS'Group'
p4311
aS'touchdowns'
p4312
aS'feelings'
p4313
aS'visible'
p4314
aS'would'
p4315
aS'hospital'
p4316
aS'June'
p4317
aS'noting'
p4318
aS'asset'
p4319
aS'assessment'
p4320
aS'Ministry'
p4321
aS'phone'
p4322
aS'excellent'
p4323
aS'must'
p4324
aS'shoot'
p4325
aS'Financial'
p4326
aS'Crown'
p4327
aS'my'
p4328
aS'estate'
p4329
aS'Lord'
p4330
aS'times'
p4331
aS'attract'
p4332
aS'guarantee'
p4333
aS'ceremony'
p4334
aS'end'
p4335
aS'sitting'
p4336
aS'Muslims'
p4337
aS'Jordan'
p4338
aS'accusations'
p4339
aS'toxic'
p4340
aS'widespread'
p4341
aS'charging'
p4342
aS'badly'
p4343
aS'demanding'
p4344
aS'amid'
p4345
aS'acknowledged'
p4346
aS'Japanese'
p4347
aS'ultimate'
p4348
aS'enter'
p4349
aS'Hills'
p4350
aS'over'
p4351
aS'expects'
p4352
aS'expectations'
p4353
aS'Here'
p4354
aS'writing'
p4355
aS'destroyed'
p4356
aS'400'
p4357
aS'Spain'
p4358
aS'tourist'
p4359
aS'prevented'
p4360
aS'tourism'
p4361
aS'Liberal'
p4362
aS'Four'
p4363
aS'affiliate'
p4364
aS'victory'
p4365
aS'each'
p4366
aS'Transport'
p4367
aS'lasting'
p4368
aS'signing'
p4369
aS'Duncan'
p4370
aS'group'
p4371
aS'celebrating'
p4372
aS'driving'
p4373
aS'Chancellor'
p4374
aS'William'
p4375
aS'laid'
p4376
aS'got'
p4377
aS'newly'
p4378
aS'independence'
p4379
aS'AFL'
p4380
aS'Cuban'
p4381
aS'associate'
p4382
aS'rail'
p4383
aS'free'
p4384
aS'rain'
p4385
aS'W'
aS'wanted'
p4386
aS'AFP'
p4387
aS'argument'
p4388
aS'Photo'
p4389
aS'days'
p4390
aS'app'
p4391
aS'onto'
p4392
aS'already'
p4393
aS'Bristol'
p4394
aS'researcher'
p4395
aS'primary'
p4396
aS'hearing'
p4397
aS'fantasy'
p4398
aS'adopted'
p4399
aS'\xc3\xa9'
p4400
aS'Congress'
p4401
aS'Academy'
p4402
aS'top'
p4403
aS'fiction'
p4404
aS'too'
p4405
aS'\xc3\xb3'
p4406
aS'percentage'
p4407
aS'Afghan'
p4408
aS'\xc3\xb6'
p4409
aS'urban'
p4410
aS'murder'
p4411
aS'tool'
p4412
aS'serve'
p4413
aS'took'
p4414
aS'negotiating'
p4415
aS'wrapped'
p4416
aS'western'
p4417
aS'roles'
p4418
aS'immigrants'
p4419
aS'Only'
p4420
aS'final'
p4421
aS'classes'
p4422
aS'10th'
p4423
aS'Galaxy'
p4424
aS'bridge'
p4425
aS'fashion'
p4426
aS'ran'
p4427
aS'talking'
p4428
aS'relatively'
p4429
aS'traditionally'
p4430
aS'-'
aS'snow'
p4431
aS'client'
p4432
aS'though'
p4433
aS'plenty'
p4434
aS'peers'
p4435
aS'devastating'
p4436
aS'metal'
p4437
aS'reputation'
p4438
aS'Its'
p4439
aS'contacted'
p4440
aS'radio'
p4441
aS'solutions'
p4442
aS'earth'
p4443
aS'bail'
p4444
aS'situations'
p4445
aS'delays'
p4446
aS'Airlines'
p4447
aS'announce'
p4448
aS'Netherlands'
p4449
aS'watch'
p4450
aS'criticized'
p4451
aS'despite'
p4452
aS'report'
p4453
aS'Moore'
p4454
aS'countries'
p4455
aS'spokesperson'
p4456
aS'Mediterranean'
p4457
aS'twice'
p4458
aS'shots'
p4459
aS'Caribbean'
p4460
aS'swept'
p4461
aS'1960s'
p4462
aS'bed'
p4463
aS'Dodgers'
p4464
aS'capacity'
p4465
aS'grandmother'
p4466
aS'finger'
p4467
aS'hopefully'
p4468
aS'mum'
p4469
aS'approach'
p4470
aS'discovery'
p4471
aS'NFL'
p4472
aS'weak'
p4473
aS'however'
p4474
aS'boss'
p4475
aS'wear'
p4476
aS'news'
p4477
aS'improve'
p4478
aS'faced'
p4479
aS'Among'
p4480
aS'protect'
p4481
aS'fault'
p4482
aS'Thomson'
p4483
aS'players'
p4484
aS'games'
p4485
aS'Corbyn'
p4486
aS'faces'
p4487
aS'expense'
p4488
aS'trust'
p4489
aS'conference'
p4490
aS'bathroom'
p4491
aS'Southern'
p4492
aS'been'
p4493
aS'quickly'
p4494
aS'confident'
p4495
aS'beer'
p4496
aS'expected'
p4497
aS'Adams'
p4498
aS'drugs'
p4499
aS'apartments'
p4500
aS'900'
p4501
aS'craft'
p4502
aS'catch'
p4503
aS'Secretary'
p4504
aS'Deputy'
p4505
aS'n'
aS'weren'
p4506
aS'teachers'
p4507
aS'stopping'
p4508
aS'procedure'
p4509
aS'expenses'
p4510
aS'Bush'
p4511
aS'experts'
p4512
aS'experience'
p4513
aS'containing'
p4514
aS'suggest'
p4515
aS'wound'
p4516
aS'Kremlin'
p4517
aS'complex'
p4518
aS'several'
p4519
aS'satellite'
p4520
aS'pick'
p4521
aS'suburb'
p4522
aS'characters'
p4523
aS'insisted'
p4524
aS'cycle'
p4525
aS'shortly'
p4526
aS'Leicester'
p4527
aS'ocean'
p4528
aS'savings'
p4529
aS'greatest'
p4530
aS'detained'
p4531
aS'mother'
p4532
aS'Sarah'
p4533
aS'agency'
p4534
aS'proposed'
p4535
aS'unemployment'
p4536
aS'Flint'
p4537
aS'teenager'
p4538
aS'Philip'
p4539
aS'gave'
p4540
aS'D'
aS'James'
p4541
aS'breaks'
p4542
aS'cultural'
p4543
aS'judge'
p4544
aS'appearing'
p4545
aS'advanced'
p4546
aS'apart'
p4547
aS'59'
p4548
aS'58'
p4549
aS'gift'
p4550
aS'55'
p4551
aS'54'
p4552
aS'57'
p4553
aS'hunt'
p4554
aS'51'
p4555
aS'50'
p4556
aS'53'
p4557
aS'52'
p4558
aS'specific'
p4559
aS'broadcaster'
p4560
aS'offices'
p4561
aS'mosquito'
p4562
aS'56'
p4563
aS'successfully'
p4564
aS'clubs'
p4565
aS'Much'
p4566
aS'meters'
p4567
aS'election'
p4568
aS'escape'
p4569
aS'Edinburgh'
p4570
aS'Life'
p4571
aS'combat'
p4572
aS'Cuba'
p4573
aS'armed'
p4574
aS'ice'
p4575
aS'everything'
p4576
aS'Dave'
p4577
aS'Cubs'
p4578
aS'Chris'
p4579
aS'officer'
p4580
aS'core'
p4581
aS'disappeared'
p4582
aS'attacks'
p4583
aS'dinner'
p4584
aS'ensure'
p4585
aS'efforts'
p4586
aS'Still'
p4587
aS'Best'
p4588
aS'Hong'
p4589
aS'presence'
p4590
aS'civil'
p4591
aS'donated'
p4592
aS'coastal'
p4593
aS'electorate'
p4594
aS'rounds'
p4595
aS'rely'
p4596
aS'class'
p4597
aS'stuck'
p4598
aS'fought'
p4599
aS'crews'
p4600
aS'head'
p4601
aS'medium'
p4602
aS'attempted'
p4603
aS'differences'
p4604
aS'heat'
p4605
aS'hear'
p4606
aS'solar'
p4607
aS'sustained'
p4608
aS'removed'
p4609
aS'versions'
p4610
aS'trio'
p4611
aS'novel'
p4612
aS'Carson'
p4613
aS'trip'
p4614
aS'regime'
p4615
aS'looked'
p4616
aS'no'
p4617
aS'when'
p4618
aS'setting'
p4619
aS'papers'
p4620
aS'tie'
p4621
aS'Philippines'
p4622
aS'Costa'
p4623
aS'football'
p4624
aS'younger'
p4625
aS'faster'
p4626
aS'American'
p4627
aS'serious'
p4628
aS'coach'
p4629
aS'remarkable'
p4630
aS'affair'
p4631
aS'focus'
p4632
aS'leads'
p4633
aS'/'
aS'Today'
p4634
aS'row'
p4635
aS'Columbia'
p4636
aS'Dan'
p4637
aS'Standard'
p4638
aS'environment'
p4639
aS'chances'
p4640
aS'charge'
p4641
aS'promoting'
p4642
aS'Day'
p4643
aS'advantage'
p4644
aS'cook'
p4645
aS'cool'
p4646
aS'impressive'
p4647
aS'level'
p4648
aS'posts'
p4649
aS'brother'
p4650
aS'standards'
p4651
aS'quick'
p4652
aS'He'
p4653
aS'says'
p4654
aS'trend'
p4655
aS'Rep'
p4656
aS'cyber'
p4657
aS'Jane'
p4658
aS'bacteria'
p4659
aS'Red'
p4660
aS'drinks'
p4661
aS'constitution'
p4662
aS'Theatre'
p4663
aS'Bruce'
p4664
aS'debate'
p4665
aS'goes'
p4666
aS'water'
p4667
aS'baseball'
p4668
aS'groups'
p4669
aS'['
aS'healthy'
p4670
aS'hadn'
p4671
aS'guilty'
p4672
aS'beautiful'
p4673
aS'shootings'
p4674
aS'Justice'
p4675
aS'iron'
p4676
aS'touchdown'
p4677
aS'crisis'
p4678
aS'Sanders'
p4679
aS'sports'
p4680
aS'memory'
p4681
aS'today'
p4682
aS'October'
p4683
aS'sessions'
p4684
aS'These'
p4685
aS'flying'
p4686
aS'Eve'
p4687
aS'chocolate'
p4688
aS'fuel'
p4689
aS'Time'
p4690
aS'cases'
p4691
aS'states'
p4692
aS'Family'
p4693
aS'German'
p4694
aS'thousands'
p4695
aS'districts'
p4696
aS'newspapers'
p4697
aS'streak'
p4698
aS'stream'
p4699
aS'Media'
p4700
aS'stroke'
p4701
aS'dropped'
p4702
aS'parliamentary'
p4703
aS'requirements'
p4704
aS'secured'
p4705
aS'1'
aS'vital'
p4706
aS'fourth'
p4707
aS'endorsement'
p4708
aS'plus'
p4709
aS'speaks'
p4710
aS'huge'
p4711
aS'crashed'
p4712
aS'birthday'
p4713
aS'eighth'
p4714
aS'Romney'
p4715
aS'exclusive'
p4716
aS'acts'
p4717
aS'midnight'
p4718
aS'White'
p4719
aS'blocked'
p4720
aS'organisation'
p4721
aS'platform'
p4722
aS'offers'
p4723
aS'happened'
p4724
aS'conversations'
p4725
aS'delighted'
p4726
aS'Rome'
p4727
aS'feature'
p4728
aS'term'
p4729
aS'equality'
p4730
aS'name'
p4731
aS'realise'
p4732
aS'Kenya'
p4733
aS'catching'
p4734
aS'begun'
p4735
aS'plans'
p4736
aS'ultimately'
p4737
aS'factors'
p4738
aS'profit'
p4739
aS'tensions'
p4740
aS'factory'
p4741
aS'attracted'
p4742
aS'attended'
p4743
aS'theory'
p4744
aS'Samsung'
p4745
aS'Security'
p4746
aS'accommodation'
p4747
aS'impose'
p4748
aS'motion'
p4749
aS'turn'
p4750
aS'place'
p4751
aS'swing'
p4752
aS'childhood'
p4753
aS'teammates'
p4754
aS'revenue'
p4755
aS'millions'
p4756
aS'given'
p4757
aS'necessarily'
p4758
aS'district'
p4759
aS'Palmer'
p4760
aS'plastic'
p4761
aS'returns'
p4762
aS'conservation'
p4763
aS'convention'
p4764
aS'Such'
p4765
aS'white'
p4766
aS'gives'
p4767
aS'hub'
p4768
aS'cope'
p4769
aS'Kardashian'
p4770
aS'season'
p4771
aS'released'
p4772
aS'copy'
p4773
aS'population'
p4774
aS'wide'
p4775
aS'Love'
p4776
aS'Colorado'
p4777
aS'require'
p4778
aS'diplomatic'
p4779
aS'spokeswoman'
p4780
aS'computer'
p4781
aS'cards'
p4782
aS'outcome'
p4783
aS'pre'
p4784
aS'pro'
p4785
aS'rent'
p4786
aS'Venezuela'
p4787
aS'any'
p4788
aS'ideas'
p4789
aS'dining'
p4790
aS'ideal'
p4791
aS'primaries'
p4792
aS'urge'
p4793
aS'sure'
p4794
aS'multiple'
p4795
aS'falls'
p4796
aS'visitors'
p4797
aS'cleared'
p4798
aS'GOP'
p4799
aS'NRL'
p4800
aS'considered'
p4801
aS'proud'
p4802
aS'trafficking'
p4803
aS'senior'
p4804
aS'cheap'
p4805
aS'Research'
p4806
aS'spaces'
p4807
aS'state'
p4808
aS'crime'
p4809
aS'wood'
p4810
aS'Louis'
p4811
aS'trade'
p4812
aS'closure'
p4813
aS'reveal'
p4814
aS'regarding'
p4815
aS'Kong'
p4816
aS'naked'
p4817
aS'paper'
p4818
aS'predicted'
p4819
aS'discussing'
p4820
aS'Mourinho'
p4821
aS'ignored'
p4822
aS'connections'
p4823
aS'college'
p4824
aS'parking'
p4825
aS'encouraged'
p4826
aS'mortgage'
p4827
aS'farmers'
p4828
aS'federal'
p4829
aS'subsequent'
p4830
aS'review'
p4831
aS'weapons'
p4832
aS'outside'
p4833
aS'arrival'
p4834
aS'Democrat'
p4835
aS'sacked'
p4836
aS'cities'
p4837
aS'come'
p4838
aS'reaction'
p4839
aS'region'
p4840
aS'quiet'
p4841
aS'contract'
p4842
aS'prompted'
p4843
aS'senator'
p4844
aS'railway'
p4845
aS'duty'
p4846
aS'afterwards'
p4847
aS'color'
p4848
aS'pot'
p4849
aS'period'
p4850
aS'pop'
p4851
aS'60'
p4852
aS'61'
p4853
aS'62'
p4854
aS'63'
p4855
aS'64'
p4856
aS'65'
p4857
aS'66'
p4858
aS'67'
p4859
aS'68'
p4860
aS'69'
p4861
aS'bizarre'
p4862
aS'poll'
p4863
aS'But'
p4864
aS'peaceful'
p4865
aS'helicopter'
p4866
aS'featuring'
p4867
aS'hardly'
p4868
aS'500'
p4869
aS'engine'
p4870
aS'direction'
p4871
aS'Phil'
p4872
aS'minister'
p4873
aS'careful'
p4874
aS'spirit'
p4875
aS'pilot'
p4876
aS'case'
p4877
aS'myself'
p4878
aS'Tesla'
p4879
aS'cash'
p4880
aS'cast'
p4881
aS'shops'
p4882
aS'Open'
p4883
aS'telephone'
p4884
aS'couples'
p4885
aS'someone'
p4886
aS'Division'
p4887
aS'author'
p4888
aS'granted'
p4889
aS'bowl'
p4890
aS'check'
p4891
aS'reminder'
p4892
aS'events'
p4893
aS'week'
p4894
aS'IS'
p4895
aS'driver'
p4896
aS'producers'
p4897
aS'changing'
p4898
aS'vowed'
p4899
aS'Is'
p4900
aS'It'
p4901
aS'without'
p4902
aS'relief'
p4903
aS'In'
p4904
aS'model'
p4905
aS'reward'
p4906
aS'researchers'
p4907
aS'If'
p4908
aS'United'
p4909
aS'tip'
p4910
aS'actress'
p4911
aS'violent'
p4912
aS'cease'
p4913
aS'captured'
p4914
aS'Belgian'
p4915
aS'blow'
p4916
aS'announcement'
p4917
aS'rose'
p4918
aS'seems'
p4919
aS'except'
p4920
aS'blog'
p4921
aS'bloc'
p4922
aS'association'
p4923
aS'samples'
p4924
aS'scheduled'
p4925
aS'Many'
p4926
aS'inflation'
p4927
aS'accepted'
p4928
aS'furniture'
p4929
aS'donations'
p4930
aS'tower'
p4931
aS'reduced'
p4932
aS'picture'
p4933
aS'West'
p4934
aS'Since'
p4935
aS'competition'
p4936
aS'table'
p4937
aS'International'
p4938
aS'provided'
p4939
aS'mood'
p4940
aS'stops'
p4941
aS'moon'
p4942
aS'provides'
p4943
aS'provider'
p4944
aS'Later'
p4945
aS'Duterte'
p4946
aS'Rock'
p4947
aS'beaches'
p4948
aS'on'
p4949
aS'of'
p4950
aS'discussed'
p4951
aS'Sturgeon'
p4952
aS'stand'
p4953
aS'or'
p4954
aS'communication'
p4955
aS'rising'
p4956
aS'determine'
p4957
aS'Jamie'
p4958
aS'alleged'
p4959
aS'strict'
p4960
aS'racist'
p4961
aS'Assad'
p4962
aS'energy'
p4963
aS'regard'
p4964
aS'cabinet'
p4965
aS'promote'
p4966
aS'longer'
p4967
aS'FBI'
p4968
aS'grass'
p4969
aS'Special'
p4970
aS'strongly'
p4971
aS'Space'
p4972
aS'taste'
p4973
aS'politics'
p4974
aS'deserve'
p4975
aS'Ankara'
p4976
aS'5'
aS'Ross'
p4977
aS'requested'
p4978
aS'briefly'
p4979
aS'championship'
p4980
aS'Vladimir'
p4981
aS'separate'
p4982
aS'symbol'
p4983
aS'includes'
p4984
aS'recognise'
p4985
aS'included'
p4986
aS'Bashar'
p4987
aS'stocks'
p4988
aS'finals'
p4989
aS'calls'
p4990
aS'wife'
p4991
aS'invest'
p4992
aS'odds'
p4993
aS'websites'
p4994
aS'directors'
p4995
aS'all'
p4996
aS'lack'
p4997
aS'follow'
p4998
aS'settlement'
p4999
aS'decisions'
p5000
aS'apartment'
p5001
aS'acting'
p5002
aS'opportunities'
p5003
aS'removal'
p5004
aS'program'
p5005
aS'lawmakers'
p5006
aS'activities'
p5007
aS'woman'
p5008
aS'worse'
p5009
aS'song'
p5010
aS'far'
p5011
aS'fat'
p5012
aS'print'
p5013
aS'sons'
p5014
aS'fan'
p5015
aS'ticket'
p5016
aS'rebounds'
p5017
aS'treating'
p5018
aS'list'
p5019
aS'grandfather'
p5020
aS'programme'
p5021
aS'ten'
p5022
aS'tea'
p5023
aS'rate'
p5024
aS'design'
p5025
aS'East'
p5026
aS'what'
p5027
aS'sub'
p5028
aS'sun'
p5029
aS'sum'
p5030
aS'brief'
p5031
aS'version'
p5032
aS'racing'
p5033
aS'guns'
p5034
aS'Australians'
p5035
aS'Mohammed'
p5036
aS'behaviour'
p5037
aS'shouldn'
p5038
aS'tragedy'
p5039
aS'extraordinary'
p5040
aS'allows'
p5041
aS'options'
p5042
aS'Sheriff'
p5043
aS'suddenly'
p5044
aS'Top'
p5045
aS'backed'
p5046
aS'Tom'
p5047
aS'Nigeria'
p5048
aS'markets'
p5049
aS'minor'
p5050
aS'horses'
p5051
aS'flat'
p5052
aS'knows'
p5053
aS'operators'
p5054
aS'flag'
p5055
aS'basically'
p5056
aS'known'
p5057
aS'debates'
p5058
aS'v'
aS'Inc'
p5059
aS'challenging'
p5060
aS'prompting'
p5061
aS'Thompson'
p5062
aS'Parliament'
p5063
aS'court'
p5064
aS'goal'
p5065
aS'rather'
p5066
aS'breaking'
p5067
aS'occasionally'
p5068
aS'explains'
p5069
aS'Foreign'
p5070
aS'reflect'
p5071
aS'brands'
p5072
aS'trucks'
p5073
aS'short'
p5074
aS'departure'
p5075
aS'shore'
p5076
aS'Democrats'
p5077
aS'developed'
p5078
aS'mission'
p5079
aS'disabled'
p5080
aS'scientist'
p5081
aS'Oct'
p5082
aS'developer'
p5083
aS'style'
p5084
aS'Marco'
p5085
aS'March'
p5086
aS'resort'
p5087
aS'parts'
p5088
aS'soccer'
p5089
aS'might'
p5090
aS'wouldn'
p5091
aS'return'
p5092
aS'L'
aS'Oxford'
p5093
aS'communities'
p5094
aS'bigger'
p5095
aS'inequality'
p5096
aS'Scottish'
p5097
aS'Sport'
p5098
aS'Ray'
p5099
aS'weight'
p5100
aS'generation'
p5101
aS'Sports'
p5102
aS'Joseph'
p5103
aS'expect'
p5104
aS'organised'
p5105
aS'More'
p5106
aS'alcohol'
p5107
aS'Tigers'
p5108
aS'health'
p5109
aS'teach'
p5110
aS'generate'
p5111
aS'thrown'
p5112
aS'People'
p5113
aS'threat'
p5114
aS'fallen'
p5115
aS'feed'
p5116
aS'feel'
p5117
aS'radical'
p5118
aS'Oklahoma'
p5119
aS'traveled'
p5120
aS'feet'
p5121
aS'Indian'
p5122
aS'fees'
p5123
aS'passes'
p5124
aS'story'
p5125
aS'"'
aS'temperature'
p5126
aS'leading'
p5127
aS'interviews'
p5128
aS'passed'
p5129
aS'finances'
p5130
aS'recovered'
p5131
aS'option'
p5132
aS'hotel'
p5133
aS'convinced'
p5134
aS'Road'
p5135
aS'king'
p5136
aS'kind'
p5137
aS'double'
p5138
aS'aims'
p5139
aS'risks'
p5140
aS'Oliver'
p5141
aS'outstanding'
p5142
aS'strengthen'
p5143
aS'suspicious'
p5144
aS'nights'
p5145
aS'port'
p5146
aS'Germany'
p5147
aS'chairman'
p5148
aS'finding'
p5149
aS'added'
p5150
aS'electric'
p5151
aS'warnings'
p5152
aS'measures'
p5153
aS'reach'
p5154
aS'77'
p5155
aS'76'
p5156
aS'75'
p5157
aS'74'
p5158
aS'73'
p5159
aS'72'
p5160
aS'71'
p5161
aS'70'
p5162
aS'nothing'
p5163
aS'seasons'
p5164
aS'measured'
p5165
aS'achievement'
p5166
aS'78'
p5167
aS'windows'
p5168
aS'traditional'
p5169
aS'institutions'
p5170
aS'lying'
p5171
aS'Ford'
p5172
aS'Jr'
p5173
aS'penalty'
p5174
aS'hip'
p5175
aS'his'
p5176
aS'hit'
p5177
aS'gains'
p5178
aS'longest'
p5179
aS'During'
p5180
aS'him'
p5181
aS'Olympic'
p5182
aS'investigate'
p5183
aS'activity'
p5184
aS'sustainable'
p5185
aS'wrote'
p5186
aS'bars'
p5187
aS'art'
p5188
aS'achieved'
p5189
aS'intelligence'
p5190
aS'defense'
p5191
aS'are'
p5192
aS'arm'
p5193
aS'declined'
p5194
aS'youth'
p5195
aS'threats'
p5196
aS'Oregon'
p5197
aS'unions'
p5198
aS'various'
p5199
aS'consecutive'
p5200
aS'numerous'
p5201
aS'corruption'
p5202
aS'solo'
p5203
aS'recently'
p5204
aS'creating'
p5205
aS'initially'
p5206
aS'sold'
p5207
aS'attention'
p5208
aS'succeed'
p5209
aS'opposition'
p5210
aS'African'
p5211
aS'franchise'
p5212
aS'license'
p5213
aS'became'
p5214
aS'context'
p5215
aS'],'
p5216
aS'bond'
p5217
aS'finds'
p5218
aS'reasons'
p5219
aS'sweet'
p5220
aS'village'
p5221
aS'decline'
p5222
aS'political'
p5223
aS'due'
p5224
aS'strategy'
p5225
aS'whom'
p5226
aS'reduction'
p5227
aS'comic'
p5228
aS'flight'
p5229
aS'firefighters'
p5230
aS'demand'
p5231
aS'plants'
p5232
aS'stolen'
p5233
aS'frozen'
p5234
aS'unprecedented'
p5235
aS'behavior'
p5236
aS'City'
p5237
aS'Italy'
p5238
aS'Edwards'
p5239
aS'disappointing'
p5240
aS'Tim'
p5241
aS'rid'
p5242
aS'lengthy'
p5243
aS'shirt'
p5244
aS'Nation'
p5245
aS'widely'
p5246
aS'9'
aS'daughters'
p5247
aS'higher'
p5248
aS'About'
p5249
aS'arrives'
p5250
aS'Cox'
p5251
aS'negotiate'
p5252
aS'holidays'
p5253
aS'arrived'
p5254
aS'robust'
p5255
aS'lower'
p5256
aS'Carter'
p5257
aS'Almost'
p5258
aS'Miller'
p5259
aS'depending'
p5260
aS'anybody'
p5261
aS'analysis'
p5262
aS'Club'
p5263
aS'edge'
p5264
aS'know'
p5265
aS'emerge'
p5266
aS'competitive'
p5267
aS'questions'
p5268
aS'regardless'
p5269
aS'continent'
p5270
aS'advisers'
p5271
aS'workers'
p5272
aS'exhibition'
p5273
aS'Front'
p5274
aS'violations'
p5275
aS'complaint'
p5276
aS'Last'
p5277
aS'advocate'
p5278
aS'Air'
p5279
aS'necessary'
p5280
aS'Yemen'
p5281
aS'Pakistan'
p5282
aS'shaped'
p5283
aS'ignore'
p5284
aS'collect'
p5285
aS'essential'
p5286
aS'understood'
p5287
aS'Channel'
p5288
aS'Fire'
p5289
aS'Fund'
p5290
aS'innovation'
p5291
aS'Times'
p5292
aS'intense'
p5293
aS'vaccine'
p5294
aS'pipeline'
p5295
aS'Square'
p5296
aS'Rob'
p5297
aS'firing'
p5298
aS'range'
p5299
aS'Simon'
p5300
aS'OPEC'
p5301
aS'impressed'
p5302
aS'question'
p5303
aS'fast'
p5304
aS'Anthony'
p5305
aS'Every'
p5306
aS'mountains'
p5307
aS'ways'
p5308
aS'repeatedly'
p5309
aS'filed'
p5310
aS'Austin'
p5311
aS'junior'
p5312
aS'raising'
p5313
aS'Bell'
p5314
aS'highlight'
p5315
aS'called'
p5316
aS'associated'
p5317
aS'stick'
p5318
aS'commissioner'
p5319
aS'warning'
p5320
aS'rally'
p5321
aS'peace'
p5322
aS'backs'
p5323
aS'teams'
p5324
aS'income'
p5325
aS'nice'
p5326
aS'users'
p5327
aS'Metro'
p5328
aS'problems'
p5329
aS'helping'
p5330
aS'generated'
p5331
aS'allowing'
p5332
aS'vice'
p5333
aS'Malcolm'
p5334
aS'departments'
p5335
aS'narrative'
p5336
aS'Turner'
p5337
aS'once'
p5338
aS'issued'
p5339
aS'resistance'
p5340
aS'Bureau'
p5341
aS'gang'
p5342
aS'winds'
p5343
aS'contributions'
p5344
aS'issues'
p5345
aS'stable'
p5346
aS'breach'
p5347
aS'include'
p5348
aS'dramatically'
p5349
aS'seized'
p5350
aS'mainstream'
p5351
aS'P'
aS'drinking'
p5352
aS'notes'
p5353
aS'deals'
p5354
aS'demonstrated'
p5355
aS'polling'
p5356
aS'dealt'
p5357
aS'relation'
p5358
aS'noted'
p5359
aS'concluded'
p5360
aS'smaller'
p5361
aS'State'
p5362
aS'traveling'
p5363
aS'Maryland'
p5364
aS'makers'
p5365
aS'universities'
p5366
aS'networks'
p5367
aS'waiting'
p5368
aS'capital'
p5369
aS'Former'
p5370
aS'Kingdom'
p5371
aS'chose'
p5372
aS'degree'
p5373
aS'pushing'
p5374
aS'youngest'
p5375
aS'explore'
p5376
aS'larger'
p5377
aS'metre'
p5378
aS'leaving'
p5379
aS'suggests'
p5380
aS'writer'
p5381
aS'deputy'
p5382
aS'Robert'
p5383
aS'Safety'
p5384
aS'apply'
p5385
aS'fed'
p5386
aS'fee'
p5387
aS'from'
p5388
aS'figure'
p5389
aS'consumption'
p5390
aS'&'
aS'few'
p5391
aS'possession'
p5392
aS'Lane'
p5393
aS'parliament'
p5394
aS'journalists'
p5395
aS'equity'
p5396
aS'infection'
p5397
aS'women'
p5398
aS'topic'
p5399
aS'anywhere'
p5400
aS'performed'
p5401
aS'tap'
p5402
aS'Northern'
p5403
aS'tax'
p5404
aS'something'
p5405
aS'Party'
p5406
aS'Australian'
p5407
aS'rape'
p5408
aS'sit'
p5409
aS'six'
p5410
aS'struggles'
p5411
aS'instead'
p5412
aS'struggled'
p5413
aS'panic'
p5414
aS'tension'
p5415
aS'attend'
p5416
aS'abuse'
p5417
aS'ethnic'
p5418
aS'light'
p5419
aS'Kings'
p5420
aS'preparing'
p5421
aS'%,'
p5422
aS'130'
p5423
aS'looks'
p5424
aS'quake'
p5425
aS'ships'
p5426
aS'permanent'
p5427
aS'choose'
p5428
aS'orange'
p5429
aS'covered'
p5430
aS'holiday'
p5431
aS'crowds'
p5432
aS'crash'
p5433
aS'practice'
p5434
aS'flew'
p5435
aS'Adam'
p5436
aS'investor'
p5437
aS'fled'
p5438
aS'successor'
p5439
aS'Pro'
p5440
aS'bills'
p5441
aS'Arts'
p5442
aS'related'
p5443
aS'Next'
p5444
aS'88'
p5445
aS'remove'
p5446
aS'82'
p5447
aS'our'
p5448
aS'80'
p5449
aS'81'
p5450
aS'86'
p5451
aS'84'
p5452
aS'85'
p5453
aS'category'
p5454
aS'sentiment'
p5455
aS'chaos'
p5456
aS'Nearly'
p5457
aS'supports'
p5458
aS'This'
p5459
aS'Indonesia'
p5460
aS'conflicts'
p5461
aS'Bulgaria'
p5462
aS'conversation'
p5463
aS'Martin'
p5464
aS'Local'
p5465
aS'North'
p5466
aS'publication'
p5467
aS'Centre'
p5468
aS'unknown'
p5469
aS'priority'
p5470
aS'their'
p5471
aS'academy'
p5472
aS'institution'
p5473
aS'patients'
p5474
aS'Peter'
p5475
aS'Diego'
p5476
aS'clip'
p5477
aS'teenagers'
p5478
aS'linked'
p5479
aS'Independent'
p5480
aS'afraid'
p5481
aS'pupils'
p5482
aS'After'
p5483
aS'which'
p5484
aS'Science'
p5485
aS'clash'
p5486
aS'centre'
p5487
aS'collaboration'
p5488
aS'who'
p5489
aS'Games'
p5490
aS'Mercedes'
p5491
aS'why'
p5492
aS'deny'
p5493
aS'High'
p5494
aS'Earth'
p5495
aS'gain'
p5496
aS'30pm'
p5497
aS'please'
p5498
aS'agreed'
p5499
aS'planning'
p5500
aS'fear'
p5501
aS'pleased'
p5502
aS'filmed'
p5503
aS'candidates'
p5504
aS'local'
p5505
aS'watching'
p5506
aS'mainly'
p5507
aS'ones'
p5508
aS'words'
p5509
aS'THE'
p5510
aS'Ten'
p5511
aS'brain'
p5512
aS'married'
p5513
aS'generations'
p5514
aS'view'
p5515
aS'available'
p5516
aS'acquired'
p5517
aS'closer'
p5518
aS'Britain'
p5519
aS'favor'
p5520
aS'closed'
p5521
aS'crude'
p5522
aS'limit'
p5523
aS'frustrated'
p5524
aS'bought'
p5525
aS'ability'
p5526
aS'opening'
p5527
aS'joy'
p5528
aS'agencies'
p5529
aS'job'
p5530
aS'safely'
p5531
aS'grounds'
p5532
aS'unclear'
p5533
aS'wall'
p5534
aS'walk'
p5535
aS'respect'
p5536
aS'decent'
p5537
aS'agreements'
p5538
aS'Toronto'
p5539
aS'painted'
p5540
aS'sufficient'
p5541
aS'scrutiny'
p5542
aS'ensuring'
p5543
aS'Neil'
p5544
aS'present'
p5545
aS'Force'
p5546
aS'abandoned'
p5547
aS'unlike'
p5548
aS'choices'
p5549
aS'will'
p5550
aS'stunning'
p5551
aS'Kasich'
p5552
aS'wild'
p5553
aS'Taiwan'
p5554
aS'thus'
p5555
aS'audiences'
p5556
aS'perhaps'
p5557
aS'cross'
p5558
aS'member'
p5559
aS'largest'
p5560
aS'units'
p5561
aS'gets'
p5562
aS'difficult'
p5563
aS'premiere'
p5564
aS'Reid'
p5565
aS'coaches'
p5566
aS'student'
p5567
aS'warming'
p5568
aS'Houston'
p5569
aS'ingredients'
p5570
aS'fighting'
p5571
aS'States'
p5572
aS'qualified'
p5573
aS'realised'
p5574
aS'rocket'
p5575
aS'heavily'
p5576
aS'wealthy'
p5577
aS'obtain'
p5578
aS'Yorkshire'
p5579
aS'fishing'
p5580
aS'Argentina'
p5581
aS'Matt'
p5582
aS'rapid'
p5583
aS'supply'
p5584
aS'sky'
p5585
aS'discuss'
p5586
aS'other'
p5587
aS'attractive'
p5588
aS'ski'
p5589
aS'loan'
p5590
aS'sick'
p5591
aS'Greek'
p5592
aS'protesters'
p5593
aS'T'
aS'press'
p5594
aS'taxpayers'
p5595
aS'hosts'
p5596
aS'conclusion'
p5597
aS'because'
p5598
aS'Sun'
p5599
aS'scared'
p5600
aS'searching'
p5601
aS'platforms'
p5602
aS'growth'
p5603
aS'export'
p5604
aS'Jonathan'
p5605
aS'employment'
p5606
aS'lead'
p5607
aS'Singapore'
p5608
aS'leak'
p5609
aS'Alzheimer'
p5610
aS'Disney'
p5611
aS'leader'
p5612
aS'murdered'
p5613
aS'rare'
p5614
aS'carried'
p5615
aS'extension'
p5616
aS'getting'
p5617
aS'urged'
p5618
aS'surge'
p5619
aS'carries'
p5620
aS'carrier'
p5621
aS'Americans'
p5622
aS'own'
p5623
aS'weather'
p5624
aS'promise'
p5625
aS'registration'
p5626
aS'fired'
p5627
aS'convicted'
p5628
aS'van'
p5629
aS'transfer'
p5630
aS'apps'
p5631
aS'Amy'
p5632
aS'overtime'
p5633
aS'Champions'
p5634
aS'triggered'
p5635
aS'funds'
p5636
aS'Detroit'
p5637
aS'volume'
p5638
aS'Following'
p5639
aS'Barack'
p5640
aS'made'
p5641
aS'tactics'
p5642
aS'Gold'
p5643
aS'whether'
p5644
aS'Ted'
p5645
aS'record'
p5646
aS'below'
p5647
aS'ruling'
p5648
aS'cake'
p5649
aS'demonstrate'
p5650
aS'incredible'
p5651
aS'percent'
p5652
aS'Islamic'
p5653
aS'book'
p5654
aS'Five'
p5655
aS'boom'
p5656
aS'branch'
p5657
aS'incredibly'
p5658
aS'Maria'
p5659
aS'illegally'
p5660
aS'kinds'
p5661
aS'Baltimore'
p5662
aS'Coach'
p5663
aS'ranks'
p5664
aS'representative'
p5665
aa(dp5666
g7
I4
sg8
I5
sg9
I6
sg10
I7
sg11
I8
sg12
I9
sg13
I10
sg14
I11
sg15
I12
sg16
I13
sg17
I14
sg18
I15
sg19
I16
sg20
I17
sg21
I18
sg22
I19
sg23
I20
sg24
I21
sg25
I22
sg26
I23
sg27
I24
sg28
I25
sg29
I26
sg30
I27
sg31
I28
sg3832
I3874
sg33
I30
sg34
I31
sg35
I32
sg36
I33
sg942
I954
sg38
I35
sg39
I36
sg244
I245
sg41
I38
sg42
I39
sg43
I40
sg44
I41
sg45
I42
sg46
I43
sg47
I44
sg48
I45
sg49
I46
sg288
I289
sg51
I48
sg52
I49
sg53
I50
sg54
I51
sg55
I52
sg56
I53
sg57
I54
sg58
I55
sg59
I56
sg60
I57
sg61
I58
sg62
I59
sg63
I60
sg64
I61
sg65
I62
sg66
I63
sg67
I64
sg68
I65
sg369
I372
sg70
I67
sg71
I68
sg72
I69
sg73
I70
sg74
I71
sg75
I72
sg76
I73
sg77
I74
sg78
I75
sg79
I76
sg80
I77
sg81
I78
sg428
I431
sg83
I80
sg84
I81
sg85
I82
sg86
I83
sg87
I84
sg88
I85
sg89
I86
sS'A'
I87
sg90
I88
sg91
I89
sg92
I90
sg93
I91
sg94
I92
sg95
I93
sg96
I94
sg97
I95
sg98
I96
sg99
I97
sg100
I98
sg101
I99
sg102
I100
sg103
I101
sg1907
I1927
sg105
I103
sg106
I104
sg107
I105
sg108
I106
sg109
I107
sg110
I108
sg111
I109
sg112
I110
sg113
I111
sg114
I112
sg115
I113
sg116
I114
sg117
I115
sg118
I116
sg119
I117
sg120
I118
sg121
I119
sg122
I120
sg123
I121
sg4756
I4810
sg724
I732
sg126
I124
sg127
I125
sg128
I126
sg129
I127
sg130
I128
sg131
I129
sg132
I130
sg2839
I2871
sg134
I132
sg135
I133
sg4760
I4814
sg137
I135
sg138
I136
sg139
I137
sg140
I138
sg141
I139
sg142
I140
sg143
I141
sg144
I142
sg145
I143
sg146
I144
sg147
I145
sg148
I146
sg149
I147
sg150
I148
sg151
I149
sg152
I150
sg153
I151
sg154
I152
sg155
I153
sg156
I154
sg157
I155
sg158
I156
sg5
I2
sg159
I157
sg160
I158
sg161
I159
sg162
I160
sg163
I161
sg164
I162
sg961
I973
sg166
I164
sg167
I165
sg168
I166
sg169
I167
sg170
I168
sg171
I169
sg172
I170
sg173
I171
sS'y'
I172
sg174
I173
sg175
I174
sg176
I175
sg177
I176
sg178
I177
sg179
I178
sg180
I179
sg181
I180
sg182
I181
sg183
I182
sg184
I183
sg185
I184
sg186
I185
sg187
I186
sg188
I187
sg189
I188
sg190
I189
sg191
I190
sg192
I191
sg193
I192
sg194
I193
sg195
I194
sg196
I195
sg197
I196
sg198
I197
sS'X'
I198
sg199
I199
sg200
I200
sg201
I201
sg202
I202
sg203
I203
sg204
I204
sg205
I205
sg206
I206
sg207
I207
sg208
I208
sg209
I209
sg210
I210
sg211
I211
sg212
I212
sg213
I213
sg2858
I2890
sg1292
I1307
sg216
I216
sg217
I217
sg218
I218
sg219
I219
sg220
I220
sg221
I221
sg223
I223
sg224
I224
sg225
I225
sg226
I226
sg227
I227
sg228
I228
sg229
I229
sg4784
I4838
sg231
I231
sg232
I232
sg233
I233
sg234
I234
sg235
I235
sS'.'
I236
sg236
I237
sg237
I238
sg3861
I3903
sg239
I240
sg240
I241
sg241
I242
sg242
I243
sg243
I244
sg40
I37
sg245
I246
sg246
I247
sg247
I248
sg248
I249
sg249
I250
sg250
I251
sg251
I252
sg252
I253
sg253
I254
sg254
I255
sg1507
I1524
sg256
I257
sg257
I258
sg258
I259
sg259
I260
sg260
I261
sg261
I262
sg262
I263
sg263
I264
sg264
I265
sg265
I266
sg266
I267
sg267
I268
sg268
I269
sg269
I270
sg2869
I2901
sg271
I272
sg272
I273
sg273
I274
sg274
I275
sg275
I276
sg1653
I1671
sg277
I278
sg278
I279
sg279
I280
sg280
I281
sg281
I282
sg282
I283
sg283
I284
sg982
I994
sg285
I286
sg1690
I1708
sg287
I288
sg50
I47
sg289
I290
sg290
I291
sg291
I292
sg292
I293
sg293
I294
sg294
I295
sg295
I296
sg296
I297
sg297
I298
sg298
I299
sg1648
I1666
sg299
I300
sg300
I301
sg301
I302
sg302
I303
sg303
I304
sg304
I305
sg305
I306
sg306
I307
sg307
I308
sg308
I309
sg309
I310
sg310
I311
sg311
I312
sg312
I313
sg313
I314
sS'o'
I315
sg314
I316
sg315
I317
sg316
I318
sg317
I319
sg318
I320
sg319
I321
sg320
I322
sg321
I323
sg322
I324
sg323
I325
sg324
I326
sg325
I327
sg326
I328
sg327
I329
sg328
I330
sg329
I331
sg330
I332
sg331
I333
sg332
I334
sg333
I335
sg334
I336
sg335
I337
sg4151
I4196
sg337
I339
sg338
I340
sg339
I341
sg2003
I2024
sg341
I343
sg342
I344
sg343
I345
sg344
I346
sg345
I347
sg346
I348
sg347
I349
sg2885
I2917
sg349
I351
sg350
I352
sg351
I353
sg352
I354
sg353
I355
sg354
I356
sg355
I357
sg356
I358
sg357
I359
sS'E'
I360
sg358
I361
sg359
I362
sg360
I363
sg361
I364
sg362
I365
sg363
I366
sg364
I367
sg365
I368
sg366
I369
sg367
I370
sg368
I371
sg69
I66
sg370
I373
sg371
I374
sg4805
I4859
sg373
I376
sg374
I377
sg375
I378
sg376
I379
sg377
I380
sg378
I381
sg379
I382
sg380
I383
sg381
I384
sg382
I385
sg383
I386
sg384
I387
sg1589
I1607
sg385
I388
sg386
I389
sg387
I390
sg388
I391
sg389
I392
sg390
I393
sg391
I394
sg392
I395
sg393
I396
sg394
I397
sg395
I398
sg396
I399
sg397
I400
sg398
I401
sg399
I402
sg400
I403
sg401
I404
sg402
I405
sg403
I406
sg404
I407
sg405
I408
sg406
I409
sg407
I410
sg408
I411
sg409
I412
sg410
I413
sg411
I414
sg412
I415
sg413
I416
sg414
I417
sg415
I418
sg416
I419
sg417
I420
sg418
I421
sg419
I422
sg420
I423
sg421
I424
sg422
I425
sg423
I426
sg424
I427
sg425
I428
sg426
I429
sg2655
I2686
sg427
I430
sg82
I79
sg429
I432
sg430
I433
sg431
I434
sg432
I435
sg433
I436
sg434
I437
sg435
I438
sg436
I439
sg437
I440
sg438
I441
sg439
I442
sg440
I443
sg441
I444
sg442
I445
sg443
I446
sg444
I447
sg4811
I4865
sg445
I449
sg446
I450
sg447
I451
sg448
I452
sg449
I453
sg450
I454
sg451
I455
sg452
I456
sg453
I457
sg454
I458
sg455
I459
sg456
I460
sg457
I461
sg458
I462
sg2656
I2687
sg460
I464
sg461
I465
sg462
I466
sg463
I467
sg464
I468
sg465
I469
sg466
I470
sg467
I471
sg468
I472
sg469
I473
sg470
I474
sg471
I475
sg472
I476
sg473
I477
sg474
I478
sg475
I479
sg476
I480
sg477
I481
sg478
I482
sg480
I484
sg481
I485
sg482
I486
sg483
I487
sg484
I488
sg2826
I2858
sg486
I490
sg487
I491
sg488
I492
sg489
I493
sg490
I494
sg491
I495
sg492
I496
sg493
I497
sg6
I3
sg494
I498
sg495
I499
sg496
I500
sg497
I501
sg498
I502
sg499
I503
sg500
I504
sg501
I505
sg502
I506
sg503
I507
sg4822
I4876
sg505
I509
sg506
I510
sg507
I511
sg508
I512
sg509
I513
sg510
I514
sg511
I515
sg512
I516
sS'2'
I518
sg514
I519
sg515
I520
sg516
I521
sg517
I522
sg518
I523
sg519
I524
sg520
I525
sg521
I526
sg522
I527
sg523
I528
sg524
I529
sg525
I530
sg526
I531
sg527
I532
sg528
I533
sg529
I534
sg530
I535
sg531
I536
sg532
I537
sg533
I538
sg534
I539
sg535
I540
sg536
I541
sg537
I542
sg3116
I3152
sg539
I544
sg540
I545
sg541
I546
sg542
I547
sg543
I548
sg544
I549
sg545
I550
sg546
I551
sg547
I552
sg548
I553
sg549
I554
sg550
I555
sg2916
I2949
sg552
I557
sg553
I558
sg554
I559
sg555
I560
sg556
I561
sg557
I562
sS'3'
I563
sg558
I564
sg559
I565
sg560
I566
sg561
I567
sg562
I568
sg563
I569
sg564
I570
sg565
I571
sg566
I572
sg567
I573
sg568
I574
sg569
I575
sg570
I576
sg571
I577
sg572
I578
sg573
I579
sg574
I580
sg575
I581
sg576
I582
sg577
I583
sg3387
I3425
sg579
I585
sg580
I586
sg581
I587
sg582
I588
sg583
I589
sg584
I590
sg585
I591
sg586
I592
sS's'
I593
sg587
I594
sg588
I595
sg589
I596
sg590
I597
sg1990
I2011
sg592
I599
sg593
I600
sg594
I601
sg595
I602
sg596
I603
sg597
I604
sg598
I605
sg599
I606
sg600
I607
sg601
I608
sg602
I609
sg603
I610
sg604
I611
sg605
I612
sg606
I613
sg607
I614
sg608
I615
sg609
I616
sg610
I617
sg611
I618
sg612
I619
sg613
I620
sg614
I621
sg615
I622
sg616
I623
sS'I'
I624
sg617
I625
sg618
I626
sg619
I627
sg620
I628
sg621
I629
sg622
I630
sg623
I631
sg624
I632
sg625
I633
sg626
I634
sg627
I635
sg629
I637
sg630
I638
sg631
I639
sg632
I640
sg633
I641
sg634
I642
sg635
I643
sg636
I644
sg637
I645
sg2931
I2965
sg639
I647
sg640
I648
sg641
I649
sg642
I650
sg643
I651
sg644
I652
sg645
I653
sg646
I654
sg647
I655
sg648
I656
sg649
I657
sg650
I658
sg651
I659
sg652
I660
sg2934
I2968
sg654
I662
sg5217
I5275
sg656
I664
sg657
I665
sg658
I666
sg659
I667
sg660
I668
sg661
I669
sg2664
I2695
sg662
I670
sg1044
I1058
sg664
I672
sg665
I673
sg666
I674
sg667
I675
sg668
I676
sg669
I677
sg670
I678
sg671
I679
sg672
I680
sg673
I681
sg674
I682
sg675
I683
sg676
I684
sg677
I685
sg678
I686
sg679
I687
sg680
I688
sg681
I689
sg682
I690
sg683
I691
sg684
I692
sg685
I693
sg686
I694
sg687
I695
sg688
I696
sg689
I697
sg690
I698
sg691
I699
sg693
I701
sg694
I702
sg695
I703
sg696
I704
sg697
I705
sg698
I706
sg699
I707
sg700
I708
sg701
I709
sg702
I710
sg3940
I3984
sg704
I712
sg705
I713
sg706
I714
sg707
I715
sg708
I716
sg709
I717
sg710
I718
sg711
I719
sg712
I720
sg713
I721
sg714
I722
sg715
I723
sg716
I724
sg717
I725
sg4877
I4931
sg719
I727
sg720
I728
sg721
I729
sg722
I730
sg723
I731
sg125
I123
sg725
I733
sg726
I734
sg727
I735
sg728
I736
sg729
I737
sg730
I738
sg731
I739
sg732
I740
sg733
I741
sg734
I742
sg735
I743
sg736
I744
sg737
I745
sg738
I746
sg739
I747
sg740
I748
sg741
I749
sg742
I750
sg743
I751
sg744
I752
sg745
I753
sg746
I754
sg4513
I4563
sg748
I756
sg4521
I4571
sg750
I758
sg751
I759
sg752
I760
sg753
I761
sg754
I762
sg755
I763
sS'6'
I764
sg756
I765
sg757
I766
sg758
I767
sg759
I768
sg760
I769
sg761
I770
sg762
I771
sg763
I772
sg764
I773
sg765
I774
sg766
I775
sg767
I776
sg768
I777
sg4673
I4726
sg770
I779
sg771
I780
sg772
I781
sg773
I782
sg775
I784
sg776
I785
sg4711
I4765
sg778
I787
sg779
I788
sg780
I789
sg781
I790
sg4736
I4790
sg783
I792
sg784
I793
sg786
I795
sg787
I796
sg788
I797
sg789
I798
sg790
I799
sg4812
I4866
sg792
I801
sg4818
I4872
sg794
I803
sg795
I804
sg796
I805
sg797
I806
sg798
I807
sg2021
I2042
sg800
I809
sg801
I810
sg802
I811
sg803
I812
sg804
I813
sg806
I815
sg807
I816
sg808
I817
sg809
I818
sg810
I819
sg811
I820
sg4894
I4948
sg813
I822
sg814
I823
sg2025
I2046
sg816
I825
sg817
I826
sg818
I827
sg819
I828
sg820
I829
sg821
I830
sg822
I831
sg823
I832
sg824
I833
sg825
I834
sg826
I835
sg827
I836
sg828
I837
sg785
I794
sg830
I839
sg831
I840
sg832
I841
sg833
I842
sg834
I843
sg835
I844
sg836
I845
sg837
I846
sg838
I847
sg839
I848
sg840
I849
sg841
I850
sg842
I851
sg843
I852
sg844
I853
sg845
I854
sg846
I855
sg847
I856
sg848
I857
sg849
I858
sg850
I859
sg5263
I5322
sg852
I861
sg853
I862
sg854
I863
sg855
I864
sS'M'
I865
sg856
I866
sg857
I867
sg858
I868
sg5590
I5651
sg859
I869
sg860
I870
sg861
I871
sg862
I872
sg4907
I4961
sg865
I875
sg866
I876
sg867
I877
sg868
I878
sg869
I879
sg870
I880
sg871
I881
sg872
I882
sg873
I883
sg874
I884
sg875
I885
sg876
I886
sg877
I887
sS'?'
I888
sg878
I889
sg879
I890
sg880
I891
sg881
I892
sg4911
I4965
sg883
I894
sg884
I895
sg885
I896
sg886
I897
sg887
I898
sg888
I899
sg889
I900
sg890
I901
sg891
I902
sg892
I903
sg893
I904
sg894
I905
sg895
I906
sg896
I907
sg897
I908
sg898
I909
sS'#'
I910
sg899
I911
sg900
I912
sg1092
I1106
sg902
I914
sg903
I915
sg904
I916
sg905
I917
sg2043
I2064
sg907
I919
sg2111
I2134
sg909
I921
sg910
I922
sg911
I923
sg912
I924
sg913
I925
sg1097
I1111
sg914
I926
sg915
I927
sg916
I928
sg917
I929
sg918
I930
sg919
I931
sg920
I932
sg921
I933
sg922
I934
sg923
I935
sg924
I936
sg925
I937
sg926
I938
sg927
I939
sg928
I940
sg930
I942
sg931
I943
sg932
I944
sg933
I945
sg934
I946
sg935
I947
sg936
I948
sg937
I949
sg938
I950
sg939
I951
sg940
I952
sg941
I953
sg37
I34
sg943
I955
sg944
I956
sg945
I957
sg946
I958
sg947
I959
sg948
I960
sg949
I961
sg950
I962
sg2052
I2073
sg952
I964
sg953
I965
sg954
I966
sg955
I967
sg956
I968
sg957
I969
sg958
I970
sg3561
I3600
sg2054
I2075
sg165
I163
sg962
I974
sg963
I975
sg964
I976
sg965
I977
sg966
I978
sg967
I979
sg968
I980
sg969
I981
sg970
I982
sg971
I983
sg972
I984
sg973
I985
sg974
I986
sg975
I987
sg976
I988
sg977
I989
sg978
I990
sg979
I991
sg980
I992
sg981
I993
sg3603
I3643
sg284
I285
sS'd'
I995
sg983
I996
sg2061
I2082
sg985
I998
sg986
I999
sg987
I1000
sg988
I1001
sg989
I1002
sg990
I1003
sg991
I1004
sg992
I1005
sg993
I1006
sg994
I1007
sg995
I1008
sg996
I1009
sg997
I1010
sg998
I1011
sg999
I1012
sg1000
I1013
sg5401
I5462
sg1001
I1014
sg1002
I1015
sg1003
I1016
sg1004
I1017
sg1005
I1018
sg1006
I1019
sg1007
I1020
sg1008
I1021
sg1009
I1022
sg1010
I1023
sg1011
I1024
sg1012
I1025
sg1013
I1026
sg1014
I1027
sg2069
I2091
sg1016
I1029
sg1017
I1030
sg1018
I1031
sS':'
I1032
sg1019
I1033
sg1020
I1034
sg1021
I1035
sg1022
I1036
sg1023
I1037
sg1024
I1038
sg1025
I1039
sg1026
I1040
sg1027
I1041
sg1028
I1042
sg1029
I1043
sg1030
I1044
sg1031
I1045
sg2988
I3022
sg1034
I1048
sg1035
I1049
sg1036
I1050
sg1037
I1051
sg1038
I1052
sg2991
I3026
sg1040
I1054
sg1041
I1055
sg1042
I1056
sg1043
I1057
sg663
I671
sg1045
I1059
sg1046
I1060
sg1047
I1061
sg1048
I1062
sg1049
I1063
sg1050
I1064
sg1051
I1065
sg1052
I1066
sg1053
I1067
sg1054
I1068
sg1055
I1069
sg1056
I1070
sg1057
I1071
sg1058
I1072
sg1059
I1073
sg4941
I4995
sg1061
I1075
sg1062
I1076
sg1063
I1077
sg1064
I1078
sg1065
I1079
sg1066
I1080
sg1067
I1081
sg1068
I1082
sg1069
I1083
sg1070
I1084
sg1071
I1085
sg1072
I1086
sg1073
I1087
sg1074
I1088
sg1075
I1089
sg1076
I1090
sg1077
I1091
sg1078
I1092
sg1079
I1093
sg1080
I1094
sg1081
I1095
sg1082
I1096
sg1083
I1097
sg1084
I1098
sg1085
I1099
sg1086
I1100
sg1087
I1101
sg1088
I1102
sg1089
I1103
sg1090
I1104
sg1091
I1105
sg901
I913
sg1093
I1107
sg1094
I1108
sg1095
I1109
sg1096
I1110
sg959
I971
sg1098
I1112
sg1099
I1113
sg1100
I1114
sg1101
I1115
sg1102
I1116
sg1103
I1117
sg1104
I1118
sg1105
I1119
sg1106
I1120
sg1107
I1121
sg1108
I1122
sg1109
I1123
sg1110
I1124
sg1111
I1125
sg1112
I1126
sg1114
I1128
sg1115
I1129
sg1116
I1130
sg1117
I1131
sg1118
I1132
sg1119
I1133
sg1120
I1134
sg1121
I1135
sg1122
I1136
sg1123
I1137
sg1124
I1138
sg1125
I1139
sg1126
I1140
sg1127
I1141
sg1128
I1142
sg1129
I1143
sg1130
I1144
sg1131
I1145
sg1132
I1146
sg1133
I1147
sg1134
I1148
sg1135
I1149
sg1136
I1150
sg1137
I1151
sg1138
I1152
sg1139
I1153
sg1140
I1154
sg1141
I1155
sg1142
I1156
sg1143
I1157
sg1144
I1158
sg1145
I1159
sg3376
I3414
sg1146
I1160
sg1147
I1161
sg1148
I1162
sg1149
I1163
sg1150
I1164
sg1151
I1165
sg1152
I1166
sg1153
I1167
sg1154
I1168
sg1155
I1169
sg1156
I1170
sg1157
I1171
sg1158
I1172
sg1159
I1173
sg1160
I1174
sg1161
I1175
sg1162
I1176
sg1163
I1177
sg1164
I1178
sg1165
I1179
sg1166
I1180
sg1167
I1181
sg1168
I1182
sg1311
I1326
sg1170
I1184
sg1171
I1185
sg1172
I1186
sg1173
I1187
sg1174
I1188
sg1175
I1189
sg1176
I1190
sg1177
I1191
sg1178
I1192
sg1179
I1193
sg3015
I3050
sg1181
I1195
sg1182
I1196
sg1183
I1197
sg1184
I1198
sg1185
I1199
sg1186
I1200
sg1187
I1201
sg1188
I1202
sg1189
I1203
sg1190
I1204
sg1191
I1205
sg1192
I1206
sg1193
I1207
sg1194
I1208
sg1195
I1209
sg1196
I1210
sg1197
I1211
sS"'"
I1212
sg1198
I1213
sg1199
I1214
sg1200
I1215
sg1201
I1216
sg1202
I1217
sg1203
I1218
sg1204
I1219
sg1205
I1220
sg1206
I1221
sg1207
I1222
sg1208
I1223
sg1209
I1224
sg1210
I1225
sg2102
I2124
sg1212
I1227
sg1213
I1228
sg1214
I1229
sg1215
I1230
sg1216
I1231
sg1217
I1232
sg1218
I1233
sg1219
I1234
sg1220
I1235
sg1221
I1236
sg1222
I1237
sg1223
I1238
sg1224
I1239
sg1225
I1240
sg1226
I1241
sg1227
I1242
sg1228
I1243
sg1229
I1244
sg2106
I2128
sg1231
I1246
sg1232
I1247
sg1233
I1248
sg1234
I1249
sg1235
I1250
sg1236
I1251
sg1237
I1252
sg1238
I1253
sg1239
I1254
sg1652
I1670
sg1241
I1256
sg1242
I1257
sg1243
I1258
sg1244
I1259
sg1676
I1694
sg1246
I1261
sg1247
I1262
sg1248
I1263
sg1249
I1264
sg1250
I1265
sg1251
I1266
sg628
I636
sg1253
I1268
sg1254
I1269
sg1255
I1270
sg1256
I1271
sg1257
I1272
sg1258
I1273
sg1259
I1274
sg1260
I1275
sg2242
I2267
sg1783
I1802
sg1263
I1278
sg1264
I1279
sg1265
I1280
sg1266
I1281
sg1267
I1282
sg1268
I1283
sg1269
I1284
sg1270
I1285
sg1271
I1286
sg1272
I1287
sg1273
I1288
sg1274
I1289
sg1275
I1290
sg1276
I1291
sg1834
I1854
sg1278
I1293
sg1279
I1294
sg1280
I1295
sg1281
I1296
sg1282
I1297
sg1283
I1298
sg1284
I1299
sg1285
I1300
sg1286
I1301
sg1287
I1302
sg1288
I1303
sg1289
I1304
sg1290
I1305
sg1291
I1306
sg215
I215
sg1293
I1308
sg1294
I1309
sg1295
I1310
sg1296
I1311
sg1297
I1312
sg1298
I1313
sg1299
I1314
sg1300
I1315
sg1301
I1316
sg1302
I1317
sg1303
I1318
sg1305
I1320
sg1306
I1321
sg1307
I1322
sg2482
I2510
sg1309
I1324
sg1310
I1325
sg1169
I1183
sg1312
I1327
sg1313
I1328
sg1314
I1329
sg1315
I1330
sg1316
I1331
sg4974
I5028
sg1317
I1332
sg1318
I1333
sg1319
I1334
sg1320
I1335
sg1321
I1336
sg1322
I1337
sg2228
I2252
sg1324
I1339
sg1325
I1340
sg1326
I1341
sg1327
I1342
sg1328
I1343
sg1329
I1344
sg2253
I2278
sg1331
I1346
sg1332
I1347
sg1333
I1348
sg1334
I1349
sg1335
I1350
sg1336
I1351
sg1337
I1352
sg1338
I1353
sg1339
I1354
sg1340
I1355
sg1341
I1356
sg1342
I1357
sg1343
I1358
sg1344
I1359
sg1345
I1360
sg2360
I2385
sg2373
I2399
sg1348
I1363
sg1349
I1364
sg1350
I1365
sg1351
I1366
sg2122
I2145
sg1353
I1368
sg1354
I1369
sg2124
I2147
sg1356
I1371
sg1357
I1372
sg1358
I1373
sg3913
I3956
sg1360
I1375
sg1361
I1376
sg1362
I1377
sg1363
I1378
sg1364
I1379
sg1365
I1380
sg1366
I1381
sg1367
I1382
sS'r'
I1383
sg1368
I1384
sg2514
I2543
sg1370
I1386
sg1371
I1387
sg1372
I1388
sg3049
I3085
sg1374
I1390
sg1375
I1391
sg1376
I1392
sg1377
I1393
sg1378
I1394
sg1379
I1395
sg1380
I1396
sg1381
I1397
sg1382
I1398
sg1383
I1399
sg1384
I1400
sg1385
I1401
sg1386
I1402
sg1387
I1403
sg1388
I1404
sg1389
I1405
sg1390
I1406
sg2129
I2152
sg1392
I1408
sg1393
I1409
sg1394
I1410
sg1395
I1411
sg1396
I1412
sg1397
I1413
sg1398
I1414
sg1399
I1415
sg1400
I1416
sg1401
I1417
sg1402
I1418
sg2678
I2709
sg1404
I1420
sg1405
I1421
sg1406
I1422
sg1407
I1423
sg1408
I1424
sg1409
I1425
sg1410
I1426
sg1411
I1427
sg1412
I1428
sg1413
I1429
sg1414
I1430
sg1415
I1431
sS'U'
I1432
sg1416
I1433
sg2785
I2817
sg1418
I1435
sg1419
I1436
sg1420
I1437
sg1421
I1438
sg1422
I1439
sg1423
I1440
sg1424
I1441
sg3064
I3100
sg1426
I1443
sg1427
I1444
sg1428
I1445
sg1429
I1446
sg1430
I1447
sg1431
I1448
sg1432
I1449
sg1433
I1450
sg1434
I1451
sg1435
I1452
sg1436
I1453
sg1437
I1454
sg1438
I1455
sg3065
I3101
sg1440
I1457
sg2944
I2978
sg1442
I1459
sg1443
I1460
sg1444
I1461
sg1445
I1462
sg1446
I1463
sg1447
I1464
sg1448
I1465
sg1449
I1466
sg1450
I1467
sg1451
I1468
sg1452
I1469
sg1453
I1470
sg1454
I1471
sg1455
I1472
sg1456
I1473
sg1457
I1474
sg1458
I1475
sg3069
I3105
sg1460
I1477
sg1461
I1478
sg1462
I1479
sg1463
I1480
sg1464
I1481
sg1465
I1482
sg1466
I1483
sg1467
I1484
sg1468
I1485
sg1469
I1486
sg1470
I1487
sg1471
I1488
sg1472
I1489
sg1473
I1490
sg1474
I1491
sg1475
I1492
sg1476
I1493
sg1477
I1494
sg1478
I1495
sg1479
I1496
sg1480
I1497
sg1481
I1498
sg1482
I1499
sg1483
I1500
sg1484
I1501
sg1485
I1502
sg1486
I1503
sg1487
I1504
sg1488
I1505
sg1489
I1506
sg1490
I1507
sg1491
I1508
sg1492
I1509
sg1493
I1510
sg1494
I1511
sg1495
I1512
sg1496
I1513
sg1497
I1514
sg1498
I1515
sg1499
I1516
sg1500
I1517
sg1501
I1518
sg1502
I1519
sg1503
I1520
sg1504
I1521
sg1505
I1522
sg1506
I1523
sg255
I256
sg1508
I1525
sg1509
I1526
sg1510
I1527
sg1511
I1528
sg1512
I1529
sg1514
I1531
sg1515
I1532
sg1516
I1533
sg1517
I1534
sg1518
I1535
sg1519
I1536
sg1520
I1537
sg1521
I1538
sg1522
I1539
sg1523
I1540
sg1524
I1541
sg1525
I1542
sg1526
I1543
sg1527
I1544
sg1528
I1545
sg1529
I1546
sg1530
I1547
sg1531
I1548
sg1532
I1549
sg1533
I1550
sg1534
I1551
sg1535
I1552
sg1536
I1553
sg1537
I1554
sg1538
I1555
sg1539
I1556
sg1540
I1557
sg1541
I1558
sg1542
I1559
sg1543
I1560
sg1544
I1561
sg1545
I1562
sg1546
I1563
sg1547
I1564
sg1548
I1565
sg1549
I1566
sg1550
I1567
sg1551
I1568
sg1552
I1569
sg1553
I1570
sg1554
I1571
sg1555
I1572
sg1556
I1573
sg1557
I1574
sg1558
I1575
sg1559
I1576
sg1560
I1577
sg1561
I1578
sg1562
I1579
sg1563
I1580
sg1564
I1581
sg1565
I1582
sg1566
I1583
sg1567
I1584
sg3728
I3769
sg1569
I1586
sg1570
I1587
sS'B'
I1588
sg1571
I1589
sg1572
I1590
sg1573
I1591
sg1574
I1592
sg1575
I1593
sg1576
I1594
sg1577
I1595
sg1578
I1596
sg1579
I1597
sg1580
I1598
sg1581
I1599
sg1582
I1600
sg1583
I1601
sg1584
I1602
sg1585
I1603
sg1586
I1604
sg1587
I1605
sg1588
I1606
sg3898
I3941
sg1590
I1608
sg1591
I1609
sg1592
I1610
sg1593
I1611
sg1594
I1612
sg1595
I1613
sg1596
I1614
sg1597
I1615
sg1598
I1616
sg1599
I1617
sg1600
I1618
sg1601
I1619
sg1602
I1620
sg1603
I1621
sg1604
I1622
sg1605
I1623
sg1606
I1624
sg1607
I1625
sg1608
I1626
sg1609
I1627
sg1610
I1628
sg1611
I1629
sg5620
I5682
sg1612
I1630
sg1613
I1631
sg1614
I1632
sg1615
I1633
sg1616
I1634
sg1617
I1635
sg1618
I1636
sg1619
I1637
sg1620
I1638
sg1621
I1639
sg1622
I1640
sg1623
I1641
sg1624
I1642
sg1625
I1643
sg1626
I1644
sg1627
I1645
sg1628
I1646
sg1629
I1647
sg1630
I1648
sg1631
I1649
sg1632
I1650
sg1633
I1651
sg1634
I1652
sg1635
I1653
sg1636
I1654
sg3110
I3146
sg1638
I1656
sg1639
I1657
sg1640
I1658
sg1641
I1659
sg1642
I1660
sg1643
I1661
sg1644
I1662
sg1645
I1663
sg1646
I1664
sg1647
I1665
sg479
I483
sg4254
I4300
sg1650
I1668
sg1651
I1669
sg1240
I1255
sg276
I277
sg1654
I1672
sg1655
I1673
sg1656
I1674
sg1657
I1675
sg1658
I1676
sg1659
I1677
sg1660
I1678
sg1661
I1679
sg1662
I1680
sg1663
I1681
sg1664
I1682
sg1665
I1683
sg1666
I1684
sg1667
I1685
sg1668
I1686
sg1669
I1687
sg1670
I1688
sg1671
I1689
sg1672
I1690
sg4383
I4430
sg1674
I1692
sg1675
I1693
sg1677
I1695
sg1678
I1696
sg1679
I1697
sg1680
I1698
sg1681
I1699
sg1682
I1700
sg1683
I1701
sg1684
I1702
sg1685
I1703
sg1686
I1704
sg1687
I1705
sg1688
I1706
sg1689
I1707
sg286
I287
sg1691
I1709
sg1692
I1710
sg1693
I1711
sg1694
I1712
sg1695
I1713
sg1696
I1714
sg1697
I1715
sg1698
I1716
sg1699
I1717
sg1700
I1718
sg1702
I1720
sg1703
I1721
sg1704
I1722
sg1705
I1723
sg1706
I1724
sg1707
I1725
sg1708
I1726
sg1709
I1727
sg1710
I1728
sg1711
I1729
sg1712
I1730
sg1713
I1731
sg1714
I1732
sg1715
I1733
sg4697
I4750
sg1717
I1735
sg2568
I2597
sg1718
I1736
sg1719
I1737
sg1720
I1738
sg1721
I1739
sg1722
I1740
sg1723
I1741
sg1724
I1742
sg1725
I1743
sg1726
I1744
sg1727
I1745
sg1728
I1746
sg3125
I3161
sg1730
I1748
sg1731
I1749
sg1732
I1750
sg5276
I5335
sg1733
I1751
sg1734
I1752
sg1735
I1753
sg4093
I4137
sg1737
I1755
sg1738
I1756
sg1739
I1757
sg1740
I1758
sg1741
I1759
sg1742
I1760
sg1743
I1761
sg1744
I1762
sg1745
I1763
sg1746
I1764
sg1747
I1765
sg1748
I1766
sg1749
I1767
sg1750
I1768
sg1751
I1769
sg1752
I1770
sg1753
I1771
sg1754
I1772
sg1755
I1773
sg1756
I1774
sg1757
I1775
sg1758
I1776
sg1759
I1777
sg1760
I1778
sg1761
I1779
sg1762
I1780
sg1763
I1781
sg1764
I1782
sg1765
I1783
sg222
I222
sg1767
I1785
sg1768
I1786
sg1769
I1787
sg1770
I1788
sg1771
I1789
sg1772
I1790
sg1773
I1791
sg1774
I1792
sg1775
I1793
sg1776
I1794
sg1777
I1795
sg1778
I1796
sS'p'
I1797
sg1779
I1798
sg1780
I1799
sg1781
I1800
sg1782
I1801
sg1262
I1277
sg1784
I1803
sg1785
I1804
sg1786
I1805
sg1787
I1806
sg1788
I1807
sg1789
I1808
sg1790
I1809
sg1791
I1810
sg1792
I1811
sg1793
I1812
sg1794
I1813
sg1795
I1814
sg1796
I1815
sg1797
I1816
sg1798
I1817
sg513
I517
sg1800
I1819
sg1801
I1820
sg1802
I1821
sg1803
I1822
sg1804
I1823
sg1805
I1824
sg1806
I1825
sg1807
I1826
sg1808
I1827
sg1809
I1828
sg1810
I1829
sg1811
I1830
sg1812
I1831
sg1813
I1832
sS'F'
I1833
sg1814
I1834
sg1815
I1835
sg1816
I1836
sg1817
I1837
sg1818
I1838
sg1819
I1839
sg1820
I1840
sg1821
I1841
sg1822
I1842
sg1823
I1843
sg1304
I1319
sg1825
I1845
sg1826
I1846
sg1827
I1847
sg1828
I1848
sg1829
I1849
sg1830
I1850
sg1831
I1851
sg1832
I1852
sg1833
I1853
sg1277
I1292
sg3132
I3168
sg1836
I1856
sg1837
I1857
sg1838
I1858
sg1839
I1859
sg1840
I1860
sg1841
I1861
sg3135
I3171
sg1843
I1863
sg1844
I1864
sg1845
I1865
sg1846
I1866
sg1847
I1867
sg1848
I1868
sg1849
I1869
sg1850
I1870
sg1851
I1871
sg1852
I1872
sg1853
I1873
sg1854
I1874
sg1855
I1875
sg1856
I1876
sg1857
I1877
sg1858
I1878
sg1859
I1879
sg1860
I1880
sg1861
I1881
sg1862
I1882
sg1863
I1883
sg1864
I1884
sg1865
I1885
sg1866
I1886
sg1867
I1887
sg1868
I1888
sg1869
I1889
sg1870
I1890
sg1871
I1891
sg1872
I1892
sg1873
I1893
sg1874
I1894
sg1875
I1895
sg1876
I1896
sg1877
I1897
sg1878
I1898
sg1879
I1899
sg1880
I1900
sg1881
I1901
sg1882
I1902
sg1883
I1903
sg1884
I1904
sg1885
I1905
sg1886
I1906
sg1887
I1907
sg1888
I1908
sg1889
I1909
sg1890
I1910
sg1891
I1911
sg2663
I2694
sg1892
I1912
sg1893
I1913
sg1894
I1914
sg1895
I1915
sg1896
I1916
sg1897
I1917
sg1898
I1918
sg1899
I1919
sg1900
I1920
sg1901
I1921
sg1902
I1922
sg3204
I3241
sg1903
I1923
sg1904
I1924
sg1905
I1925
sg1906
I1926
sg104
I102
sg4686
I4739
sg1909
I1929
sg1910
I1930
sg1911
I1931
sg1912
I1932
sg1913
I1933
sg1914
I1934
sg1915
I1935
sg1916
I1936
sg1917
I1937
sg1918
I1938
sg1919
I1939
sg1920
I1940
sg1921
I1941
sg1922
I1942
sg1923
I1943
sg1924
I1944
sg1925
I1945
sg1926
I1946
sg1927
I1947
sg1928
I1948
sg1929
I1949
sg1930
I1950
sg1931
I1951
sg1932
I1952
sg1933
I1953
sg1934
I1954
sg1935
I1955
sg1936
I1956
sg1937
I1957
sg1938
I1958
sg1939
I1959
sg1940
I1960
sg3149
I3185
sg1942
I1962
sg1943
I1963
sg1944
I1964
sg1946
I1966
sg5077
I5133
sg1948
I1968
sg1949
I1969
sg1950
I1970
sS']'
I1971
sg1951
I1972
sg1952
I1973
sg1953
I1974
sg1954
I1975
sg1955
I1976
sg1956
I1977
sg1957
I1978
sg1958
I1979
sg1959
I1980
sg1960
I1981
sg1961
I1982
sg1962
I1983
sg1963
I1984
sg1964
I1985
sg1965
I1986
sg1966
I1987
sg1967
I1988
sg1968
I1989
sg1969
I1990
sg1970
I1991
sg1971
I1992
sg1972
I1993
sg1973
I1994
sg1974
I1995
sg1975
I1996
sg3157
I3193
sg1977
I1998
sg1978
I1999
sg1979
I2000
sg1980
I2001
sg1981
I2002
sg1982
I2003
sg1984
I2005
sg1985
I2006
sg1986
I2007
sg1987
I2008
sg1988
I2009
sg1989
I2010
sg591
I598
sg1996
I2017
sg1991
I2012
sg1992
I2013
sg1993
I2014
sg1994
I2015
sg1995
I2016
sg336
I338
sg1997
I2018
sg1998
I2019
sg1999
I2020
sg2000
I2021
sg2001
I2022
sg2002
I2023
sg340
I342
sg2004
I2025
sg2005
I2026
sg2006
I2027
sg2007
I2028
sg2008
I2029
sg2009
I2030
sg2010
I2031
sg2011
I2032
sg2012
I2033
sg2013
I2034
sg2014
I2035
sg2015
I2036
sg2016
I2037
sg2017
I2038
sg2018
I2039
sg2019
I2040
sg2020
I2041
sg799
I808
sg2022
I2043
sg2023
I2044
sg2024
I2045
sg815
I824
sg2026
I2047
sg2027
I2048
sg2028
I2049
sg2029
I2050
sg2030
I2051
sg2031
I2052
sg2032
I2053
sg2033
I2054
sg2034
I2055
sg2035
I2056
sg2036
I2057
sg2037
I2058
sg2038
I2059
sg2039
I2060
sg2040
I2061
sg2041
I2062
sg2042
I2063
sg906
I918
sg2044
I2065
sg2045
I2066
sg2046
I2067
sg2047
I2068
sg2048
I2069
sg2049
I2070
sg2050
I2071
sg2051
I2072
sg951
I963
sg2053
I2074
sg960
I972
sg2055
I2076
sg2056
I2077
sg2057
I2078
sg2058
I2079
sg2059
I2080
sg2060
I2081
sg984
I997
sg2062
I2083
sg2063
I2084
sg2064
I2085
sS't'
I2086
sg2223
I2247
sg2066
I2088
sg2067
I2089
sg2068
I2090
sg4500
I4549
sg2070
I2092
sg2071
I2093
sg2072
I2094
sg2073
I2095
sg4396
I4444
sg2074
I2096
sg2075
I2097
sg2076
I2098
sg2077
I2099
sg2078
I2100
sg2079
I2101
sg2080
I2102
sg2081
I2103
sg2082
I2104
sg2083
I2105
sg2084
I2106
sg2085
I2107
sg2086
I2108
sg2087
I2109
sg3171
I3207
sg2089
I2111
sg2090
I2112
sg2091
I2113
sg2092
I2114
sg2093
I2115
sg2094
I2116
sg2095
I2117
sg2096
I2118
sg2097
I2119
sg2098
I2120
sg2099
I2121
sg2100
I2122
sg2101
I2123
sg1211
I1226
sg2103
I2125
sg2104
I2126
sg2105
I2127
sg1230
I1245
sS'J'
I2129
sg2107
I2130
sg2108
I2131
sg2109
I2132
sg2110
I2133
sg2112
I2135
sg2113
I2136
sg2114
I2137
sg2115
I2138
sg2116
I2139
sg2117
I2140
sg2118
I2141
sg2119
I2142
sg2120
I2143
sg2121
I2144
sg1352
I1367
sg2123
I2146
sg1355
I1370
sg2125
I2148
sg2126
I2149
sg2127
I2150
sg2128
I2151
sg1391
I1407
sg2130
I2153
sg2131
I2154
sg2132
I2155
sg2133
I2156
sg2134
I2157
sg2135
I2158
sg2136
I2159
sg2137
I2160
sg2138
I2161
sg2139
I2162
sg2140
I2163
sg2141
I2164
sg2142
I2165
sg2143
I2166
sg2144
I2167
sg3197
I3234
sg2145
I2168
sg2146
I2169
sg2147
I2170
sg2148
I2171
sg2149
I2172
sg2150
I2173
sg2151
I2174
sg2152
I2175
sg2153
I2176
sg2154
I2177
sg2155
I2178
sg2156
I2179
sg2157
I2180
sg2158
I2181
sg2159
I2182
sg2160
I2183
sg2161
I2184
sg2162
I2185
sg2163
I2186
sg2164
I2187
sg5627
I5689
sg2165
I2188
sg2166
I2189
sg2167
I2190
sg2168
I2191
sg2169
I2192
sg2170
I2193
sg2171
I2194
sg2172
I2195
sg2173
I2196
sg2174
I2197
sg2175
I2198
sg2176
I2199
sg2177
I2200
sg2178
I2201
sg2179
I2202
sg2180
I2203
sg2181
I2204
sg2182
I2205
sg2183
I2206
sg3196
I3233
sg2185
I2208
sg2186
I2209
sg2187
I2210
sg2188
I2211
sg2190
I2213
sg2191
I2214
sg2192
I2215
sg2193
I2216
sg2194
I2217
sg2195
I2218
sg2196
I2219
sS'a'
I2220
sg2197
I2221
sg2198
I2222
sg2199
I2223
sg2200
I2224
sg2201
I2225
sg2202
I2226
sg2203
I2227
sg2204
I2228
sg2205
I2229
sg2206
I2230
sg2207
I2231
sg2208
I2232
sg2209
I2233
sg2210
I2234
sg5117
I5174
sg2211
I2235
sg2212
I2236
sg2214
I2238
sg2215
I2239
sg2216
I2240
sg2217
I2241
sg2218
I2242
sg2219
I2243
sg2220
I2244
sg1245
I1260
sg2221
I2245
sg2222
I2246
sg2065
I2087
sg2224
I2248
sg2225
I2249
sg2226
I2250
sg2227
I2251
sg1323
I1338
sg2229
I2253
sg2230
I2254
sg2231
I2255
sg2232
I2256
sS'7'
I2257
sg2233
I2258
sg2234
I2259
sg2235
I2260
sg2236
I2261
sg2237
I2262
sg2238
I2263
sg2239
I2264
sg2240
I2265
sg2241
I2266
sg2243
I2268
sg2244
I2269
sg2245
I2270
sg2246
I2271
sg2247
I2272
sg2248
I2273
sg2249
I2274
sg2250
I2275
sg2251
I2276
sg774
I783
sg1330
I1345
sg805
I814
sg2255
I2280
sg2256
I2281
sg2257
I2282
sg2258
I2283
sg2254
I2279
sg5544
I5605
sg2260
I2285
sg2261
I2286
sg2262
I2287
sg2263
I2288
sg2264
I2289
sg2265
I2290
sg2266
I2291
sg2267
I2292
sg2268
I2293
sg2269
I2294
sg2270
I2295
sg2271
I2296
sg2272
I2297
sg2273
I2298
sg2274
I2299
sg2275
I2300
sg2276
I2301
sg2277
I2302
sg2278
I2303
sg2279
I2304
sg2280
I2305
sg2281
I2306
sg2282
I2307
sg2283
I2308
sg2284
I2309
sg2285
I2310
sg2286
I2311
sg2287
I2312
sg2288
I2313
sg2289
I2314
sg2290
I2315
sg2291
I2316
sg2292
I2317
sg2293
I2318
sg2294
I2319
sg2295
I2320
sg2296
I2321
sg2297
I2322
sg2298
I2323
sg2299
I2324
sg2300
I2325
sg2301
I2326
sg2302
I2327
sg2303
I2328
sg2304
I2329
sg2305
I2330
sg2306
I2331
sg2307
I2332
sg2308
I2333
sg2309
I2334
sg2310
I2335
sg2311
I2336
sg2312
I2337
sg2313
I2338
sg2314
I2339
sg2315
I2340
sg2316
I2341
sg2317
I2342
sg2318
I2343
sg2319
I2344
sg2320
I2345
sg2321
I2346
sg2322
I2347
sg2323
I2348
sg2324
I2349
sg2325
I2350
sg2326
I2351
sg2327
I2352
sg2328
I2353
sg2329
I2354
sg2330
I2355
sg2331
I2356
sg2332
I2357
sg2333
I2358
sg2334
I2359
sg2335
I2360
sg2336
I2361
sg2739
I2771
sg2338
I2363
sg2339
I2364
sg2340
I2365
sg2341
I2366
sg2342
I2367
sg2343
I2368
sg2344
I2369
sg2345
I2370
sg2346
I2371
sg2347
I2372
sg2348
I2373
sg2349
I2374
sg2350
I2375
sg2351
I2376
sg2352
I2377
sg2353
I2378
sg2354
I2379
sg2355
I2380
sg2356
I2381
sg2357
I2382
sg2358
I2383
sg2359
I2384
sg1346
I1361
sS'N'
I2386
sg2361
I2387
sg2362
I2388
sg2363
I2389
sg2364
I2390
sg2365
I2391
sg2366
I2392
sg2367
I2393
sg2368
I2394
sg2369
I2395
sg2370
I2396
sg2371
I2397
sg2372
I2398
sg1347
I1362
sg2374
I2400
sg2375
I2401
sg2376
I2402
sg2377
I2403
sg3228
I3265
sg2378
I2404
sg2940
I2974
sg2380
I2406
sg2381
I2407
sg2382
I2408
sg2383
I2409
sg2384
I2410
sg2385
I2411
sg2386
I2412
sg2677
I2708
sg2995
I3030
sg2388
I2414
sg2389
I2415
sg2390
I2416
sg2391
I2417
sS'$'
I2418
sg2392
I2419
sg2393
I2420
sg2394
I2421
sg2395
I2422
sg2396
I2423
sg2397
I2424
sg2398
I2425
sg2399
I2426
sg2400
I2427
sg2401
I2428
sg2402
I2429
sg2403
I2430
sg2404
I2431
sg2405
I2432
sg2406
I2433
sg2407
I2434
sg2408
I2435
sg4821
I4875
sg2410
I2437
sg2411
I2438
sg2412
I2439
sg2413
I2440
sg2414
I2441
sg3213
I3250
sg2416
I2443
sg2417
I2444
sg2418
I2445
sg2419
I2446
sg2420
I2447
sg2421
I2448
sg2422
I2449
sg2423
I2450
sg2424
I2451
sg2425
I2452
sg3281
I3318
sg2427
I2454
sg2428
I2455
sg2429
I2456
sg2430
I2457
sg2431
I2458
sg2432
I2459
sg2433
I2460
sg2434
I2461
sg5166
I5224
sg2436
I2463
sg2437
I2464
sg2438
I2465
sg2439
I2466
sg4205
I4251
sg5657
I5719
sg2441
I2468
sg2442
I2469
sg2443
I2470
sg2444
I2471
sg2445
I2472
sg2446
I2473
sg2448
I2475
sg2449
I2476
sg3447
I3485
sg2451
I2478
sg2452
I2479
sg3480
I3518
sg2454
I2481
sg2455
I2482
sg2456
I2483
sg2457
I2484
sg2458
I2485
sg2459
I2486
sg2460
I2487
sg2461
I2488
sg2462
I2489
sg2463
I2490
sg2464
I2491
sg2465
I2492
sS'e'
I2493
sg2466
I2494
sg2467
I2495
sg2468
I2496
sg3557
I3596
sg2470
I2498
sg2471
I2499
sg2472
I2500
sg2473
I2501
sg2474
I2502
sg2475
I2503
sg2476
I2504
sg2477
I2505
sg2478
I2506
sg2479
I2507
sg2480
I2508
sg2481
I2509
sg2483
I2511
sg2484
I2512
sg3687
I3728
sg2486
I2514
sg2487
I2515
sg2488
I2516
sg2489
I2517
sg2490
I2518
sg2491
I2519
sg2492
I2520
sS';'
I2521
sg2493
I2522
sg2494
I2523
sg3801
I3843
sg2496
I2525
sg2497
I2526
sg2498
I2527
sg2499
I2528
sg2500
I2529
sg2501
I2530
sg2502
I2531
sg2503
I2532
sg2504
I2533
sg2506
I2535
sg2507
I2536
sg2508
I2537
sg2509
I2538
sg2510
I2539
sg1441
I1458
sg2511
I2540
sg2512
I2541
sg2513
I2542
sg1369
I1385
sg2515
I2544
sg2516
I2545
sg2517
I2546
sg1908
I1928
sg2519
I2548
sg2520
I2549
sg2521
I2550
sg2522
I2551
sg2523
I2552
sg2524
I2553
sg2525
I2554
sg2526
I2555
sg2527
I2556
sg3961
I4005
sg2529
I2558
sg2530
I2559
sg2531
I2560
sg2532
I2561
sg2533
I2562
sg2534
I2563
sg2535
I2564
sg2536
I2565
sg2537
I2566
sg2252
I2277
sg2538
I2567
sg2539
I2568
sg2540
I2569
sg2541
I2570
sg2542
I2571
sg2543
I2572
sg2544
I2573
sg2545
I2574
sg2546
I2575
sg2547
I2576
sg2548
I2577
sg2549
I2578
sg2550
I2579
sg2551
I2580
sg5179
I5237
sg2553
I2582
sg2554
I2583
sg2555
I2584
sg4223
I4269
sg2556
I2585
sg2557
I2586
sg2558
I2587
sg2559
I2588
sg2560
I2589
sg2561
I2590
sg2562
I2591
sg2563
I2592
sg2564
I2593
sg2565
I2594
sg2566
I2595
sg2567
I2596
sg4226
I4272
sg2569
I2598
sg2570
I2599
sg2571
I2600
sg2572
I2601
sg4228
I4274
sg2574
I2603
sg2575
I2604
sg2576
I2605
sg2577
I2606
sg2578
I2607
sg2579
I2608
sg3269
I3306
sg2581
I2610
sg2582
I2611
sg2583
I2612
sg2584
I2613
sg2585
I2614
sg2586
I2615
sg2587
I2616
sg4331
I4378
sg2589
I2618
sg2590
I2619
sg2591
I2620
sg2592
I2621
sg2593
I2622
sg2594
I2623
sg2595
I2624
sg2596
I2625
sg2597
I2626
sg4399
I4447
sg2599
I2628
sg4416
I4464
sg2601
I2630
sg2602
I2631
sg2603
I2632
sg2604
I2633
sg2605
I2634
sS'R'
I2635
sg2606
I2636
sg2607
I2637
sg2608
I2638
sg2609
I2639
sg3276
I3313
sg2611
I2641
sg2612
I2642
sg2613
I2643
sg2614
I2644
sg2615
I2645
sg2616
I2646
sg2617
I2647
sg2618
I2648
sg2619
I2649
sg2620
I2650
sg2621
I2651
sg2622
I2652
sg2623
I2653
sg2624
I2654
sg2625
I2655
sg2626
I2656
sg2627
I2657
sg2628
I2658
sg2629
I2659
sg2630
I2660
sg2631
I2661
sg4631
I4682
sg2633
I2663
sg2634
I2664
sg2635
I2665
sg2636
I2666
sg2637
I2667
sg2638
I2668
sg2639
I2669
sg4671
I4724
sS'('
I2671
sg2641
I2672
sg2642
I2673
sg2643
I2674
sg4689
I4742
sg2645
I2676
sg2646
I2677
sg2647
I2678
sg2648
I2679
sg2649
I2680
sg2650
I2681
sg2651
I2682
sg2652
I2683
sg2653
I2684
sg2654
I2685
sg5073
I5129
sg459
I463
sg2657
I2688
sg2658
I2689
sg2659
I2690
sg2660
I2691
sg2661
I2692
sg2662
I2693
sg3311
I3348
sg4781
I4835
sg2665
I2696
sg2666
I2697
sg2667
I2698
sg2668
I2699
sg2669
I2700
sg4808
I4862
sg2671
I2702
sg2672
I2703
sg2673
I2704
sg2674
I2705
sg2675
I2706
sg2676
I2707
sg3290
I3327
sg1403
I1419
sg3291
I3328
sg2680
I2711
sg2681
I2712
sg2682
I2713
sg2683
I2714
sg2684
I2715
sg2685
I2716
sg2686
I2717
sg2687
I2718
sg2688
I2719
sg2689
I2720
sg2690
I2721
sg2691
I2722
sg2692
I2723
sg2693
I2724
sg2694
I2725
sg3379
I3417
sg2696
I2727
sg2697
I2728
sg3295
I3332
sg2699
I2730
sg2700
I2731
sg3288
I3325
sg2701
I2732
sg4612
I4663
sg2703
I2734
sg2704
I2735
sg2705
I2736
sg2706
I2737
sg2707
I2738
sg2708
I2739
sg2709
I2740
sg2710
I2741
sg2711
I2742
sg2712
I2743
sg2713
I2744
sg5088
I5144
sg2715
I2746
sg2716
I2747
sg2717
I2748
sg2718
I2749
sg2719
I2750
sg2720
I2751
sg2721
I2752
sg2722
I2753
sg2723
I2754
sg2724
I2755
sg2725
I2756
sS'i'
I2757
sg2726
I2758
sg2727
I2759
sg2728
I2760
sg2729
I2761
sg2730
I2762
sg2731
I2763
sg2732
I2764
sg2733
I2765
sg2734
I2766
sg2735
I2767
sg2736
I2768
sg2737
I2769
sg2738
I2770
sg2337
I2362
sg2740
I2772
sg2741
I2773
sg2742
I2774
sg2743
I2775
sg2744
I2776
sg2745
I2777
sg2746
I2778
sg2747
I2779
sg2748
I2780
sg2749
I2781
sg2750
I2782
sg5280
I5339
sg2752
I2784
sg2753
I2785
sg2754
I2786
sg2755
I2787
sg2756
I2788
sg2757
I2789
sg2758
I2790
sg2759
I2791
sg2760
I2792
sg2761
I2793
sg2762
I2794
sg2763
I2795
sg2764
I2796
sg3
I0
sg2765
I2797
sg2766
I2798
sg2767
I2799
sg2768
I2800
sg2769
I2801
sg2770
I2802
sg2771
I2803
sg2772
I2804
sg2773
I2805
sg2774
I2806
sg2775
I2807
sg2776
I2808
sg2777
I2809
sg5225
I5283
sg2778
I2810
sg2779
I2811
sg2780
I2812
sg2781
I2813
sg2782
I2814
sg2783
I2815
sg2784
I2816
sg1417
I1434
sg2786
I2818
sg2787
I2819
sg2788
I2820
sg2789
I2821
sg2790
I2822
sg2791
I2823
sg2792
I2824
sg2793
I2825
sg2794
I2826
sg2795
I2827
sg2796
I2828
sg2797
I2829
sg2798
I2830
sg2799
I2831
sg2800
I2832
sg2801
I2833
sg2802
I2834
sg2803
I2835
sg2804
I2836
sg2805
I2837
sg2806
I2838
sg2807
I2839
sg2808
I2840
sg2809
I2841
sg3310
I3347
sg2811
I2843
sg2812
I2844
sg2813
I2845
sg2814
I2846
sg2815
I2847
sg2816
I2848
sg2817
I2849
sg2818
I2850
sg2819
I2851
sg2820
I2852
sg2821
I2853
sg2822
I2854
sg2823
I2855
sg2824
I2856
sg2825
I2857
sg485
I489
sg2827
I2859
sg2828
I2860
sg2829
I2861
sg2830
I2862
sg2831
I2863
sg2832
I2864
sg2833
I2865
sg2834
I2866
sg2835
I2867
sg2836
I2868
sg2837
I2869
sg2838
I2870
sg133
I131
sg2840
I2872
sg4
I1
sg2841
I2873
sg2842
I2874
sg2843
I2875
sg2844
I2876
sg2845
I2877
sg2846
I2878
sg2847
I2879
sg2848
I2880
sg2849
I2881
sg2850
I2882
sg2851
I2883
sg2852
I2884
sg2853
I2885
sg2854
I2886
sg2855
I2887
sg2856
I2888
sg2857
I2889
sg214
I214
sg2859
I2891
sg2860
I2892
sg2861
I2893
sg2862
I2894
sg2863
I2895
sg2864
I2896
sg2865
I2897
sg2866
I2898
sg2867
I2899
sg2868
I2900
sg270
I271
sg2870
I2902
sg2871
I2903
sg2872
I2904
sg2873
I2905
sg2874
I2906
sg2875
I2907
sg2876
I2908
sg2877
I2909
sg2878
I2910
sg2879
I2911
sg2880
I2912
sg2881
I2913
sg2882
I2914
sg2883
I2915
sg2884
I2916
sg348
I350
sg2886
I2918
sg2887
I2919
sg2888
I2920
sg2889
I2921
sS'V'
I2922
sg2890
I2923
sg2891
I2924
sg2892
I2925
sg2893
I2926
sg2894
I2927
sg2895
I2928
sg2896
I2929
sg2897
I2930
sg2898
I2931
sg2899
I2932
sg2900
I2933
sg2901
I2934
sg2902
I2935
sg2903
I2936
sg2904
I2937
sg2905
I2938
sg2906
I2939
sg2907
I2940
sg2908
I2941
sg2909
I2942
sg2910
I2943
sg2911
I2944
sg2912
I2945
sg2913
I2946
sg2914
I2947
sg2915
I2948
sg551
I556
sg2917
I2950
sg2918
I2951
sg2919
I2952
sS','
I2953
sg2920
I2954
sg2921
I2955
sg2922
I2956
sg2923
I2957
sg2924
I2958
sg2925
I2959
sg2926
I2960
sg2927
I2961
sg2928
I2962
sg2929
I2963
sg2930
I2964
sg638
I646
sg2932
I2966
sg2933
I2967
sg653
I661
sg2935
I2969
sg655
I663
sg2937
I2971
sg2938
I2972
sg2939
I2973
sg2379
I2405
sg2941
I2975
sg2942
I2976
sg2943
I2977
sg2945
I2979
sg2946
I2980
sg2947
I2981
sg2948
I2982
sg2949
I2983
sg2950
I2984
sg2951
I2985
sg5254
I5313
sg2953
I2987
sg2954
I2988
sg2955
I2989
sg2956
I2990
sg2957
I2991
sg2958
I2992
sg2959
I2993
sg2960
I2994
sg2961
I2995
sg2962
I2996
sg2963
I2997
sg2964
I2998
sg2965
I2999
sg2966
I3000
sg2967
I3001
sg2968
I3002
sg2969
I3003
sg2970
I3004
sg2971
I3005
sg2972
I3006
sg2973
I3007
sg2974
I3008
sg929
I941
sg2976
I3010
sg2977
I3011
sg2978
I3012
sg2979
I3013
sg2980
I3014
sg2981
I3015
sg2982
I3016
sg2983
I3017
sg2984
I3018
sg2985
I3019
sg2986
I3020
sg2987
I3021
sg1033
I1047
sS'm'
I3023
sg2989
I3024
sg2990
I3025
sg1039
I1053
sg2992
I3027
sg2993
I3028
sg4295
I4342
sg2387
I2413
sg2996
I3031
sg2997
I3032
sg2998
I3033
sg2999
I3034
sg3000
I3035
sg3001
I3036
sg3002
I3037
sg3003
I3038
sg3004
I3039
sg3005
I3040
sg3006
I3041
sg3007
I3042
sg3008
I3043
sg3009
I3044
sg3010
I3045
sg3011
I3046
sg3012
I3047
sg3013
I3048
sg3014
I3049
sg1180
I1194
sg3016
I3051
sg3017
I3052
sg3018
I3053
sg3019
I3054
sg3020
I3055
sg3021
I3056
sg3022
I3057
sg3023
I3058
sg3024
I3059
sg3025
I3060
sg3026
I3061
sg3027
I3062
sg3028
I3063
sg3029
I3064
sg3030
I3065
sg3031
I3066
sg3032
I3067
sS'C'
I3068
sg3033
I3069
sg3034
I3070
sg3035
I3071
sg3036
I3072
sg3037
I3073
sg3038
I3074
sg3039
I3075
sg3040
I3076
sg3041
I3077
sg3042
I3078
sg3353
I3391
sg3044
I3080
sg3045
I3081
sg3046
I3082
sg4303
I4350
sg3048
I3084
sg1373
I1389
sg3050
I3086
sg3051
I3087
sg3052
I3088
sg3053
I3089
sg3054
I3090
sg3055
I3091
sg3056
I3092
sg3057
I3093
sg3058
I3094
sg3059
I3095
sg3060
I3096
sg3061
I3097
sg3062
I3098
sg3063
I3099
sg1425
I1442
sg1439
I1456
sg3066
I3102
sg3067
I3103
sg3068
I3104
sg1459
I1476
sg3070
I3106
sg3071
I3107
sg3072
I3108
sg3073
I3109
sg3074
I3110
sg3075
I3111
sg3076
I3112
sg3077
I3113
sg3078
I3114
sg3079
I3115
sg3080
I3116
sg3081
I3117
sg3082
I3118
sg3083
I3119
sg3084
I3120
sg3085
I3121
sg3086
I3122
sg3087
I3123
sg4309
I4356
sg3089
I3125
sg1983
I2004
sg3091
I3127
sg3092
I3128
sg3093
I3129
sg3094
I3130
sg3361
I3399
sg3096
I3132
sg3097
I3133
sg3098
I3134
sg3099
I3135
sg3100
I3136
sg3101
I3137
sg3102
I3138
sg3103
I3139
sg3104
I3140
sg3105
I3141
sg3106
I3142
sg3107
I3143
sg3108
I3144
sg3109
I3145
sg1637
I1655
sg3111
I3147
sg3112
I3148
sg3113
I3149
sg3114
I3150
sg3115
I3151
sg538
I543
sg3117
I3153
sg3118
I3154
sg3119
I3155
sg3120
I3156
sg3121
I3157
sg3122
I3158
sg3123
I3159
sg3124
I3160
sg1729
I1747
sg3126
I3162
sg3372
I3410
sg3373
I3411
sg3129
I3165
sg3130
I3166
sg3131
I3167
sg1835
I1855
sg3133
I3169
sg3134
I3170
sg1842
I1862
sg3136
I3172
sg3137
I3173
sg3138
I3174
sg3139
I3175
sg3140
I3176
sg3141
I3177
sg3142
I3178
sg3143
I3179
sg3144
I3180
sg3145
I3181
sg3146
I3182
sg3147
I3183
sg2259
I2284
sg3148
I3184
sg1941
I1961
sg3150
I3186
sg3151
I3187
sg3152
I3188
sg3153
I3189
sg3154
I3190
sg3155
I3191
sg3156
I3192
sg1976
I1997
sg2409
I2436
sg3158
I3194
sg3159
I3195
sg3160
I3196
sg3161
I3197
sg3162
I3198
sg3163
I3199
sg3164
I3200
sg3165
I3201
sg3166
I3202
sg3167
I3203
sg3168
I3204
sg3169
I3205
sg3170
I3206
sg2088
I2110
sg3172
I3208
sg3173
I3209
sg3174
I3210
sg3175
I3211
sg3176
I3212
sg3177
I3213
sg3178
I3214
sg3179
I3215
sg3180
I3216
sg3181
I3217
sg3182
I3218
sg3183
I3219
sg3184
I3220
sg3185
I3221
sg3382
I3420
sg3187
I3223
sg3188
I3224
sg3189
I3225
sg3190
I3226
sg3191
I3227
sg3192
I3228
sS'0'
I3229
sg3193
I3230
sg3194
I3231
sg3195
I3232
sg2184
I2207
sg2189
I2212
sg3198
I3235
sg3199
I3236
sg3200
I3237
sg3201
I3238
sg4326
I4373
sg3203
I3240
sg2213
I2237
sg3205
I3242
sg3206
I3243
sg3207
I3244
sg3208
I3245
sg3209
I3246
sg3210
I3247
sg3211
I3248
sg3212
I3249
sg2415
I2442
sg3214
I3251
sg3215
I3252
sg3216
I3253
sg3217
I3254
sg3218
I3255
sg3219
I3256
sg3220
I3257
sg5292
I5351
sg3222
I3259
sg3223
I3260
sg3224
I3261
sg3225
I3262
sg3226
I3263
sg3227
I3264
sg3800
I3842
sg3229
I3266
sg3230
I3267
sg3231
I3268
sg3232
I3269
sg3233
I3270
sg3234
I3271
sg3235
I3272
sg3236
I3273
sg3237
I3274
sg3238
I3275
sg3239
I3276
sg5293
I5352
sg3241
I3278
sg3242
I3279
sg3243
I3280
sg3244
I3281
sg3245
I3282
sg3246
I3283
sg3247
I3284
sg3248
I3285
sg3249
I3286
sg3250
I3287
sg3251
I3288
sg3252
I3289
sg3253
I3290
sg3254
I3291
sg3255
I3292
sg3256
I3293
sg3257
I3294
sg3258
I3295
sg3259
I3296
sg3260
I3297
sg3261
I3298
sg3262
I3299
sg3263
I3300
sg3264
I3301
sg3265
I3302
sg3266
I3303
sg3267
I3304
sg3268
I3305
sg2580
I2609
sg3270
I3307
sg3271
I3308
sg3272
I3309
sg3273
I3310
sg3274
I3311
sg3275
I3312
sg2610
I2640
sg3277
I3314
sg3278
I3315
sg3279
I3316
sg3280
I3317
sg2426
I2453
sg3282
I3319
sg3283
I3320
sg3284
I3321
sg3285
I3322
sg3286
I3323
sg3287
I3324
sg2505
I2534
sg3289
I3326
sg4371
I4418
sg2679
I2710
sg3292
I3329
sg3293
I3330
sg4337
I4384
sg2698
I2729
sg3296
I3333
sg3297
I3334
sg3298
I3335
sg3299
I3336
sg3300
I3337
sg3301
I3338
sg3302
I3339
sg3303
I3340
sg3304
I3341
sg3305
I3342
sg3306
I3343
sg3307
I3344
sg3308
I3345
sg3309
I3346
sg2810
I2842
sg3312
I3349
sg3313
I3350
sg3314
I3351
sg3315
I3352
sg3316
I3353
sS'G'
I3354
sg3317
I3355
sg3318
I3356
sg3319
I3357
sg3320
I3358
sg3321
I3359
sg3322
I3360
sg3323
I3361
sg3324
I3362
sg3325
I3363
sg3326
I3364
sg3327
I3365
sg3328
I3366
sg5304
I5363
sg3330
I3368
sg3331
I3369
sg3332
I3370
sg3333
I3371
sg3334
I3372
sg3335
I3373
sg3336
I3374
sg2975
I3009
sg3338
I3376
sg3339
I3377
sg3340
I3378
sg3341
I3379
sg3342
I3380
sg3343
I3381
sg3344
I3382
sg3345
I3383
sg3346
I3384
sg3347
I3385
sg3348
I3386
sg3349
I3387
sg3350
I3388
sg3351
I3389
sg3352
I3390
sg3043
I3079
sg3354
I3392
sg3355
I3393
sg3356
I3394
sg3357
I3395
sg3358
I3396
sg3359
I3397
sg3360
I3398
sg3095
I3131
sg3362
I3400
sg3363
I3401
sg3364
I3402
sg3365
I3403
sg3366
I3404
sg3367
I3405
sg3368
I3406
sg3369
I3407
sg3370
I3408
sg3371
I3409
sg1945
I1965
sg3128
I3164
sg3374
I3412
sg3375
I3413
sg3840
I3882
sg3377
I3415
sg3378
I3416
sg3380
I3418
sg3381
I3419
sg3186
I3222
sg3383
I3421
sg3384
I3422
sg3385
I3423
sg3386
I3424
sg578
I584
sg3388
I3426
sg3389
I3427
sg3390
I3428
sg3418
I3456
sg3392
I3430
sg3393
I3431
sg3394
I3432
sg3395
I3433
sg3396
I3434
sg3397
I3435
sg3398
I3436
sg3399
I3437
sg3400
I3438
sg3401
I3439
sg3402
I3440
sg3403
I3441
sg3404
I3442
sg3405
I3443
sg3406
I3444
sg3407
I3445
sg3408
I3446
sg3409
I3447
sg3410
I3448
sg3411
I3449
sg3412
I3450
sg3413
I3451
sg3414
I3452
sg3415
I3453
sg3416
I3454
sg3417
I3455
sg3391
I3429
sg3419
I3457
sg3420
I3458
sg3421
I3459
sg3422
I3460
sg3423
I3461
sg3424
I3462
sg3425
I3463
sg3426
I3464
sg3427
I3465
sg3428
I3466
sg3429
I3467
sg3430
I3468
sg3431
I3469
sg3432
I3470
sg3433
I3471
sg3434
I3472
sg3435
I3473
sg3436
I3474
sg3437
I3475
sg3438
I3476
sg3439
I3477
sg3440
I3478
sg3441
I3479
sg3442
I3480
sg3443
I3481
sg3444
I3482
sg3445
I3483
sg3446
I3484
sg2450
I2477
sg3448
I3486
sg3449
I3487
sg3450
I3488
sg3451
I3489
sg3452
I3490
sg3453
I3491
sg3454
I3492
sg3455
I3493
sg3456
I3494
sg3457
I3495
sg3458
I3496
sg3459
I3497
sg3460
I3498
sg3461
I3499
sg3462
I3500
sg4359
I4406
sg3464
I3502
sg3465
I3503
sg3466
I3504
sg3467
I3505
sg3468
I3506
sg3469
I3507
sg3470
I3508
sg3471
I3509
sg3472
I3510
sg3696
I3737
sg3474
I3512
sg3475
I3513
sg3476
I3514
sg829
I838
sg3477
I3515
sg3478
I3516
sg3479
I3517
sg2453
I2480
sg3481
I3519
sg3482
I3520
sg3483
I3521
sg3484
I3522
sg3485
I3523
sg3486
I3524
sg3487
I3525
sg3488
I3526
sS'4'
I3527
sg3489
I3528
sg3490
I3529
sg3491
I3530
sg3492
I3531
sg3493
I3532
sg3494
I3533
sg3495
I3534
sg3496
I3535
sg3497
I3536
sg3498
I3537
sg3499
I3538
sg3500
I3539
sg3887
I3929
sg3889
I3931
sg3503
I3542
sg3504
I3543
sg3505
I3544
sg3506
I3545
sg3507
I3546
sg3508
I3547
sg3509
I3548
sg3510
I3549
sg3511
I3550
sg3512
I3551
sg3513
I3552
sg4366
I4413
sg3515
I3554
sg3516
I3555
sg3517
I3556
sg3518
I3557
sg3519
I3558
sg3520
I3559
sg3521
I3560
sg3522
I3561
sg3523
I3562
sg3524
I3563
sg3525
I3564
sg3526
I3565
sg3527
I3566
sg3528
I3567
sg3529
I3568
sg3530
I3569
sg3531
I3570
sg3532
I3571
sg3533
I3572
sg3534
I3573
sg3535
I3574
sg3536
I3575
sg3537
I3576
sg3538
I3577
sg3539
I3578
sg3540
I3579
sg3541
I3580
sg3542
I3581
sg3543
I3582
sg3544
I3583
sg3545
I3584
sg3546
I3585
sg4149
I4194
sg3548
I3587
sg3549
I3588
sg3550
I3589
sg3551
I3590
sg3552
I3591
sg3553
I3592
sg3554
I3593
sg3555
I3594
sg3556
I3595
sg2469
I2497
sg3558
I3597
sg5633
I5695
sg3559
I3598
sg3560
I3599
sg3562
I3601
sg3563
I3602
sg3564
I3603
sg3565
I3604
sg3566
I3605
sg3567
I3606
sg3568
I3607
sg3569
I3608
sg3570
I3609
sg3571
I3610
sg3572
I3611
sg3573
I3612
sg3574
I3613
sg3575
I3614
sg3576
I3615
sg3577
I3616
sg3578
I3617
sg3579
I3618
sg3580
I3619
sg3581
I3620
sg3582
I3621
sg1308
I1323
sg3583
I3622
sg3584
I3623
sg3585
I3624
sg3586
I3625
sg3587
I3626
sg3588
I3627
sg3589
I3628
sg3590
I3629
sg3591
I3630
sg3592
I3631
sg3593
I3632
sg3594
I3633
sg3595
I3634
sg3596
I3635
sg3597
I3636
sg3598
I3637
sg3599
I3638
sg3600
I3639
sg3601
I3640
sg3602
I3641
sS'K'
I3642
sg4472
I4521
sg3604
I3644
sg3605
I3645
sg3606
I3646
sg3607
I3647
sg1766
I1784
sg3609
I3649
sg3610
I3650
sg3611
I3651
sg3612
I3652
sg3613
I3653
sg3614
I3654
sg4574
I4625
sg3616
I3656
sg3617
I3657
sg3618
I3658
sg3619
I3659
sg3620
I3660
sg3621
I3661
sg3622
I3662
sg3623
I3663
sg4627
I4678
sg3625
I3665
sg3626
I3666
sg3627
I3667
sg3628
I3668
sg3629
I3669
sg3630
I3670
sg3631
I3671
sg3632
I3672
sg3633
I3673
sg3634
I3674
sg3635
I3675
sg2518
I2547
sg3636
I3676
sg3637
I3677
sg3638
I3678
sg3639
I3679
sg3640
I3680
sg3641
I3681
sg3642
I3682
sS'!'
I3683
sg3643
I3684
sg3644
I3685
sg3645
I3686
sg3646
I3687
sg3647
I3688
sg3648
I3689
sg3649
I3690
sg3650
I3691
sg3651
I3692
sg3652
I3693
sg3653
I3694
sg3654
I3695
sg3655
I3696
sg3656
I3697
sg3657
I3698
sg3658
I3699
sg3659
I3700
sg3660
I3701
sg3661
I3702
sg3662
I3703
sg3663
I3704
sg3664
I3705
sg3665
I3706
sg3666
I3707
sg3667
I3708
sg3668
I3709
sg3669
I3710
sg3670
I3711
sg3671
I3712
sg3672
I3713
sg3673
I3714
sg3674
I3715
sg3675
I3716
sg3676
I3717
sg3677
I3718
sg3678
I3719
sg3679
I3720
sg3680
I3721
sg3681
I3722
sg4923
I4977
sg3683
I3724
sg3684
I3725
sg3685
I3726
sg3686
I3727
sg2485
I2513
sg3688
I3729
sg3689
I3730
sg3690
I3731
sg3691
I3732
sg4963
I5017
sg3693
I3734
sg3694
I3735
sg3695
I3736
sg3473
I3511
sg3697
I3738
sg5228
I5286
sg3700
I3741
sg3701
I3742
sg3702
I3743
sg3703
I3744
sg3704
I3745
sg3705
I3746
sg3706
I3747
sg3707
I3748
sg3708
I3749
sg3709
I3750
sg3710
I3751
sg4401
I4449
sg3712
I3753
sg3713
I3754
sg3714
I3755
sg3715
I3756
sg3716
I3757
sg3717
I3758
sg4403
I4451
sg3719
I3760
sg3720
I3761
sg3721
I3762
sg3722
I3763
sg3723
I3764
sg3724
I3765
sg3725
I3766
sg3726
I3767
sg3727
I3768
sg1568
I1585
sg3729
I3770
sg3730
I3771
sg3731
I3772
sg3732
I3773
sg3733
I3774
sg3734
I3775
sg3735
I3776
sg5195
I5253
sg3737
I3778
sg3738
I3779
sg3739
I3780
sg3740
I3781
sg3741
I3782
sg3742
I3783
sg3743
I3784
sg3744
I3785
sg3745
I3786
sg3746
I3787
sg3747
I3788
sg5260
I5319
sg3749
I3790
sg3750
I3791
sg3751
I3792
sg3752
I3793
sg3753
I3794
sg3754
I3795
sg3755
I3796
sg3756
I3797
sg3757
I3798
sg3758
I3799
sg3759
I3800
sg3760
I3801
sg3761
I3802
sg3762
I3803
sg3763
I3804
sg3764
I3805
sg3765
I3806
sg3766
I3807
sg3767
I3808
sg3768
I3809
sg3769
I3810
sg5358
I5418
sg3771
I3812
sg3772
I3813
sg3773
I3814
sg3774
I3815
sg3775
I3816
sg3776
I3817
sg3777
I3818
sg3778
I3819
sS'8'
I3820
sg3779
I3821
sg3780
I3822
sg3781
I3823
sg3782
I3824
sg3783
I3825
sg3784
I3826
sg3785
I3827
sg3786
I3828
sg3787
I3829
sg3788
I3830
sg3789
I3831
sg3790
I3832
sg3791
I3833
sg3792
I3834
sg3793
I3835
sg3794
I3836
sg3795
I3837
sg3796
I3838
sg3797
I3839
sg3798
I3840
sg3799
I3841
sg4676
I4729
sg2495
I2524
sg3802
I3844
sg3803
I3845
sg3804
I3846
sg3805
I3847
sg3806
I3848
sg3807
I3849
sg3808
I3850
sg3809
I3851
sg2936
I2970
sg3810
I3852
sg3811
I3853
sg3812
I3854
sg3813
I3855
sg3814
I3856
sg3815
I3857
sg3816
I3858
sg3817
I3859
sg3818
I3860
sg3819
I3861
sg3820
I3862
sg3821
I3863
sg3822
I3864
sg3823
I3865
sg3824
I3866
sg3825
I3867
sg3826
I3868
sg3827
I3869
sg4428
I4476
sg3829
I3871
sg3830
I3872
sg3831
I3873
sg32
I29
sg3833
I3875
sg3834
I3876
sg3835
I3877
sg3836
I3878
sg3837
I3879
sg3838
I3880
sg3839
I3881
sg3841
I3883
sg3842
I3884
sg3843
I3885
sg3844
I3886
sg3845
I3887
sg3846
I3888
sg3847
I3889
sg3848
I3890
sg3849
I3891
sg3850
I3892
sg3851
I3893
sg4431
I4480
sg3853
I3895
sg3854
I3896
sg3855
I3897
sg3856
I3898
sg3857
I3899
sg3858
I3900
sg3859
I3901
sg3860
I3902
sg238
I239
sg3862
I3904
sg3863
I3905
sg3864
I3906
sg3865
I3907
sg3866
I3908
sg3867
I3909
sg3868
I3910
sg3869
I3911
sg3870
I3912
sg3871
I3913
sg3872
I3914
sg3873
I3915
sg3874
I3916
sg3875
I3917
sg3876
I3918
sg3877
I3919
sg3878
I3920
sg3879
I3921
sg3880
I3922
sg3881
I3923
sg3882
I3924
sg3883
I3925
sg3884
I3926
sg3885
I3927
sg3886
I3928
sg3501
I3540
sg3888
I3930
sg3502
I3541
sg3890
I3932
sg3891
I3933
sg5386
I5446
sS'O'
I3935
sg3893
I3936
sg3894
I3937
sg3895
I3938
sg3896
I3939
sg3897
I3940
sg3899
I3942
sg3900
I3943
sg3901
I3944
sg3902
I3945
sg3903
I3946
sg3904
I3947
sg3905
I3948
sg3906
I3949
sg3907
I3950
sg3908
I3951
sg3909
I3952
sg3910
I3953
sg3911
I3954
sg3912
I3955
sg3914
I3957
sg5561
I5622
sg3915
I3958
sg3916
I3959
sg3917
I3960
sg3918
I3961
sg3919
I3962
sg3920
I3963
sg3921
I3964
sS'%'
I3965
sg3922
I3966
sg3923
I3967
sg3924
I3968
sg3925
I3969
sg3926
I3970
sg3927
I3971
sg3928
I3972
sg3929
I3973
sg3930
I3974
sg3931
I3975
sg3932
I3976
sg3933
I3977
sg3934
I3978
sg3935
I3979
sg3936
I3980
sg3937
I3981
sg3938
I3982
sg3939
I3983
sg703
I711
sg3941
I3985
sg3942
I3986
sg3943
I3987
sg3944
I3988
sg3945
I3989
sg3947
I3991
sg3948
I3992
sg3949
I3993
sg3950
I3994
sg3951
I3995
sg3952
I3996
sg3953
I3997
sg3954
I3998
sg3955
I3999
sg3956
I4000
sg3957
I4001
sg3958
I4002
sg3959
I4003
sg3090
I3126
sg3960
I4004
sg2528
I2557
sg3962
I4006
sg3963
I4007
sg3964
I4008
sg3965
I4009
sg3966
I4010
sg3967
I4011
sg3968
I4012
sg3969
I4013
sg3970
I4014
sg3971
I4015
sg3972
I4016
sg3973
I4017
sg3974
I4018
sg3975
I4019
sg3976
I4020
sg3977
I4021
sg3978
I4022
sg3979
I4023
sg3980
I4024
sg3981
I4025
sg4445
I4494
sg3983
I4027
sg3985
I4029
sg3986
I4030
sg3987
I4031
sg3988
I4032
sg3989
I4033
sg3990
I4034
sg3991
I4035
sg3992
I4036
sg3993
I4037
sg3994
I4038
sg3995
I4039
sg3996
I4040
sg3997
I4041
sg3998
I4042
sg3999
I4043
sg4000
I4044
sg4001
I4045
sg5405
I5466
sg4002
I4046
sg4003
I4047
sg4004
I4048
sg4005
I4049
sg4006
I4050
sg4007
I4051
sg4008
I4052
sg4009
I4053
sg4010
I4054
sg4011
I4055
sg4012
I4056
sg4013
I4057
sg4014
I4058
sg4015
I4059
sg4016
I4060
sg4017
I4061
sg4018
I4062
sg4019
I4063
sg4020
I4064
sg4452
I4501
sg4022
I4066
sg4023
I4067
sg4024
I4068
sg4025
I4069
sg4026
I4070
sg4027
I4071
sg4028
I4072
sg4029
I4073
sg4030
I4074
sg4031
I4075
sg4032
I4076
sg4033
I4077
sg4034
I4078
sg4035
I4079
sg4036
I4080
sg4037
I4081
sg4038
I4082
sg4039
I4083
sg4040
I4084
sg4041
I4085
sg4042
I4086
sg4043
I4087
sg4044
I4088
sg4045
I4089
sg4046
I4090
sg4047
I4091
sg4048
I4092
sg4049
I4093
sg4050
I4094
sg4051
I4095
sg4052
I4096
sg4054
I4098
sg4055
I4099
sg4056
I4100
sg4057
I4101
sg4058
I4102
sg4059
I4103
sg4060
I4104
sg4061
I4105
sg4062
I4106
sg4063
I4107
sg4064
I4108
sg4065
I4109
sg4066
I4110
sg4067
I4111
sg4068
I4112
sg4069
I4113
sg4070
I4114
sg4071
I4115
sg4072
I4116
sg4073
I4117
sg4074
I4118
sg4075
I4119
sg4076
I4120
sg4077
I4121
sg4078
I4122
sg4079
I4123
sg4080
I4124
sg4081
I4125
sg4082
I4126
sg4083
I4127
sg4084
I4128
sg4085
I4129
sg4086
I4130
sg4087
I4131
sg4088
I4132
sg4089
I4133
sg4090
I4134
sg4091
I4135
sg4092
I4136
sg1736
I1754
sg4094
I4138
sg4095
I4139
sg4096
I4140
sg4097
I4141
sg4098
I4142
sg4099
I4143
sg4100
I4144
sg4101
I4145
sg4102
I4146
sg4103
I4147
sg4104
I4148
sg4105
I4149
sg4106
I4150
sg4107
I4151
sg4108
I4152
sg4109
I4153
sg4110
I4154
sg4111
I4155
sg4112
I4156
sg4113
I4157
sg5324
I5383
sg4115
I4159
sg4116
I4160
sg4117
I4161
sg4118
I4162
sg4119
I4163
sg4120
I4164
sg4121
I4165
sg4122
I4166
sg4123
I4167
sg4124
I4168
sg4125
I4169
sg4126
I4170
sg4127
I4171
sS'S'
I4172
sg4128
I4173
sg4129
I4174
sg4130
I4175
sg4131
I4176
sg4132
I4177
sg4133
I4178
sg4134
I4179
sg4135
I4180
sg4136
I4181
sg4137
I4182
sg4138
I4183
sg4139
I4184
sg4140
I4185
sg4141
I4186
sg4142
I4187
sg4143
I4188
sg4144
I4189
sg4145
I4190
sg4146
I4191
sg4147
I4192
sg4148
I4193
sg3547
I3586
sg4150
I4195
sg4152
I4197
sg4153
I4198
sg4154
I4199
sg4155
I4200
sg4156
I4201
sg4157
I4202
sg4158
I4203
sg4159
I4204
sg4160
I4205
sg4161
I4206
sg4162
I4207
sg4163
I4208
sg4164
I4209
sS')'
I4210
sg4165
I4211
sg4166
I4212
sg5434
I5495
sg4168
I4214
sg4169
I4215
sg4170
I4216
sg4171
I4217
sg4172
I4218
sg4173
I4219
sg4174
I4220
sg4175
I4221
sg4176
I4222
sg4177
I4223
sg4178
I4224
sg4179
I4225
sg4180
I4226
sg4181
I4227
sg4182
I4228
sg4183
I4229
sg4184
I4230
sg4185
I4231
sg4186
I4232
sg4187
I4233
sg4188
I4234
sg4189
I4235
sg4190
I4236
sg4191
I4237
sg4192
I4238
sg4193
I4239
sg4194
I4240
sg4195
I4241
sg4196
I4242
sg4197
I4243
sg4198
I4244
sg4199
I4245
sg4200
I4246
sg4201
I4247
sg4202
I4248
sg4203
I4249
sg4204
I4250
sg2440
I2467
sg4206
I4252
sg4207
I4253
sg4208
I4254
sg4209
I4255
sg4211
I4257
sg4212
I4258
sg4213
I4259
sg4214
I4260
sg4215
I4261
sg4216
I4262
sg4217
I4263
sg4218
I4264
sg4219
I4265
sg4220
I4266
sg4221
I4267
sg4222
I4268
sg5308
I5367
sg4224
I4270
sg4225
I4271
sg5072
I5128
sg4227
I4273
sg2573
I2602
sg4229
I4275
sg4230
I4276
sg4231
I4277
sg4232
I4278
sg4233
I4279
sg4234
I4280
sg4235
I4281
sg4236
I4282
sg4237
I4283
sg4238
I4284
sg4239
I4285
sg4240
I4286
sg4241
I4287
sg4242
I4288
sg4243
I4289
sg4244
I4290
sg4245
I4291
sg2702
I2733
sg4246
I4292
sg4247
I4293
sg4248
I4294
sg4249
I4295
sg4250
I4296
sg4251
I4297
sg4252
I4298
sg4253
I4299
sg1649
I1667
sg4255
I4301
sg4256
I4302
sg4257
I4303
sg4258
I4304
sg4499
I4548
sg5453
I5514
sg4261
I4307
sg4262
I4308
sg4263
I4309
sg4264
I4310
sg4265
I4311
sg4266
I4312
sg4267
I4313
sg4268
I4314
sg4269
I4315
sg4270
I4316
sg4271
I4317
sg4272
I4318
sS'@'
I4319
sg4273
I4320
sg4274
I4321
sg4275
I4322
sg4276
I4323
sg4277
I4324
sg4278
I4325
sg4279
I4326
sg4280
I4327
sg4281
I4328
sg4282
I4329
sg4283
I4330
sg4284
I4331
sg4285
I4332
sg4286
I4333
sg4287
I4334
sg4288
I4335
sg4289
I4336
sg4290
I4337
sg4291
I4338
sg4292
I4339
sg4293
I4340
sg4294
I4341
sg2994
I3029
sg4296
I4343
sg4297
I4344
sg4298
I4345
sg4299
I4346
sg4300
I4347
sg4301
I4348
sg4302
I4349
sg3047
I3083
sg4304
I4351
sg4305
I4352
sg4306
I4353
sg4307
I4354
sg4308
I4355
sg3088
I3124
sg4310
I4357
sg4311
I4358
sg4312
I4359
sg4313
I4360
sg4314
I4361
sg882
I893
sg4315
I4362
sg4316
I4363
sg4317
I4364
sg4318
I4365
sg4319
I4366
sg4320
I4367
sg4321
I4368
sg4322
I4369
sg4323
I4370
sg4324
I4371
sg4325
I4372
sg3202
I3239
sg4327
I4374
sg4328
I4375
sg4329
I4376
sg4330
I4377
sg2588
I2617
sg4332
I4379
sg4333
I4380
sg4334
I4381
sg4335
I4382
sg4336
I4383
sg3294
I3331
sg4338
I4385
sg4339
I4386
sg4340
I4387
sg4341
I4388
sg4342
I4389
sg4343
I4390
sg4344
I4391
sg4345
I4392
sg4346
I4393
sg4347
I4394
sg4348
I4395
sg4349
I4396
sg4350
I4397
sg4351
I4398
sg4352
I4399
sg4353
I4400
sg4354
I4401
sg4355
I4402
sg4356
I4403
sg4357
I4404
sg4358
I4405
sg3463
I3501
sg4360
I4407
sg4361
I4408
sg4362
I4409
sg4363
I4410
sg4364
I4411
sg4365
I4412
sg3514
I3553
sg4367
I4414
sg4368
I4415
sg4369
I4416
sg4370
I4417
sg4372
I4419
sg4373
I4420
sg4374
I4421
sg4375
I4422
sg4376
I4423
sg4377
I4424
sg4378
I4425
sg4379
I4426
sg4380
I4427
sg4381
I4428
sg4382
I4429
sg1673
I1691
sg4384
I4431
sg4385
I4432
sS'W'
I4433
sg4386
I4434
sg4387
I4435
sg4388
I4436
sg4389
I4437
sg4390
I4438
sg4391
I4439
sg4392
I4440
sg4393
I4441
sg4523
I4573
sg4395
I4443
sg4210
I4256
sg4397
I4445
sg4398
I4446
sg2598
I2627
sg4400
I4448
sg3711
I3752
sg4402
I4450
sg3718
I3759
sg4404
I4452
sg4405
I4453
sg4406
I4454
sg4407
I4455
sg4408
I4456
sg4409
I4457
sg4410
I4458
sg4411
I4459
sg4412
I4460
sg4413
I4461
sg4414
I4462
sg4415
I4463
sg2600
I2629
sg4417
I4465
sg4418
I4466
sg4419
I4467
sg4420
I4468
sg4421
I4469
sg4422
I4470
sg4423
I4471
sg4424
I4472
sg4425
I4473
sg4426
I4474
sg4427
I4475
sg3828
I3870
sg4429
I4477
sg4430
I4478
sS'-'
I4479
sg3852
I3894
sg4432
I4481
sg4433
I4482
sg4434
I4483
sg4435
I4484
sg4436
I4485
sg4437
I4486
sg4438
I4487
sg4439
I4488
sg4440
I4489
sg4441
I4490
sg4442
I4491
sg4443
I4492
sg4444
I4493
sg3982
I4026
sg4446
I4495
sg4448
I4497
sg4449
I4498
sg4450
I4499
sg4451
I4500
sg4021
I4065
sg4453
I4502
sg4454
I4503
sg4455
I4504
sg4456
I4505
sg4457
I4506
sg4458
I4507
sg4459
I4508
sg4460
I4509
sg4461
I4510
sg4462
I4511
sg4463
I4512
sg4464
I4513
sg4465
I4514
sg4466
I4515
sg4467
I4516
sg4468
I4517
sg4469
I4518
sg4470
I4519
sg4471
I4520
sg4473
I4522
sg4474
I4523
sg4475
I4524
sg4476
I4525
sg4477
I4526
sg4478
I4527
sg4479
I4528
sg4480
I4529
sg4481
I4530
sg4482
I4531
sg4483
I4532
sg4484
I4533
sg4485
I4534
sg4486
I4535
sg4487
I4536
sg4488
I4537
sg4489
I4538
sg4490
I4539
sg4491
I4540
sg4492
I4541
sg4493
I4542
sg4494
I4543
sg4495
I4544
sg4496
I4545
sg4497
I4546
sg4498
I4547
sg4259
I4305
sg4501
I4550
sg4502
I4551
sg4503
I4552
sg4504
I4553
sg3608
I3648
sg4505
I4554
sS'n'
I4555
sg4506
I4556
sg4507
I4557
sg4508
I4558
sg4509
I4559
sg4510
I4560
sg4511
I4561
sg4512
I4562
sg747
I755
sg4514
I4564
sg4515
I4565
sg4516
I4566
sg5479
I5540
sg4518
I4568
sg4519
I4569
sg4520
I4570
sg749
I757
sg4522
I4572
sg4394
I4442
sg4524
I4574
sg4525
I4575
sg4526
I4576
sg4527
I4577
sg4528
I4578
sg4529
I4579
sg4530
I4580
sg4531
I4581
sg4532
I4582
sg4533
I4583
sg5483
I5544
sg4535
I4585
sg4536
I4586
sg4537
I4587
sg4538
I4588
sg4539
I4589
sg4540
I4590
sS'D'
I4591
sg4541
I4592
sg4542
I4593
sg4543
I4594
sg4544
I4595
sg4545
I4596
sg4546
I4597
sg4547
I4598
sg4548
I4599
sg4549
I4600
sg4550
I4601
sg4551
I4602
sg4552
I4603
sg4553
I4604
sg4554
I4605
sg4555
I4606
sg4556
I4607
sg4557
I4608
sg4558
I4609
sg4559
I4610
sg4560
I4611
sg4561
I4612
sg4562
I4613
sg4563
I4614
sg4564
I4615
sg4565
I4616
sg4566
I4617
sg4567
I4618
sg4568
I4619
sg4569
I4620
sg4570
I4621
sg4571
I4622
sg5486
I5547
sg4573
I4624
sg3615
I3655
sg4575
I4626
sg4576
I4627
sg4577
I4628
sg4578
I4629
sg4579
I4630
sg4653
I4705
sg4581
I4632
sg4582
I4633
sg4583
I4634
sg4584
I4635
sg4585
I4636
sg4586
I4637
sg4587
I4638
sg4588
I4639
sg4589
I4640
sg4590
I4641
sg4591
I4642
sg4592
I4643
sg4593
I4644
sg4594
I4645
sg4595
I4646
sg4596
I4647
sg5492
I5553
sg4598
I4649
sg4599
I4650
sg4600
I4651
sg4601
I4652
sg4602
I4653
sg4603
I4654
sg4604
I4655
sg4605
I4656
sg4606
I4657
sg4607
I4658
sg4608
I4659
sg4609
I4660
sg1701
I1719
sg4611
I4662
sg4613
I4664
sg4891
I4945
sg4615
I4666
sg5494
I5555
sg4617
I4668
sg4910
I4964
sg4619
I4670
sg4620
I4671
sg4621
I4672
sg4622
I4673
sg4623
I4674
sg4624
I4675
sg4625
I4676
sg4626
I4677
sg3624
I3664
sg4628
I4679
sg4629
I4680
sg4630
I4681
sg2632
I2662
sg4632
I4683
sg4633
I4684
sS'/'
I4685
sg4634
I4686
sg4635
I4687
sg4636
I4688
sg4637
I4689
sg4638
I4690
sg4639
I4691
sg5497
I5558
sg4641
I4693
sg4642
I4694
sg4643
I4695
sg4644
I4696
sg4645
I4697
sg4646
I4698
sg4647
I4699
sg4648
I4700
sg4649
I4701
sg4650
I4702
sg4651
I4703
sg4652
I4704
sg4654
I4706
sg4655
I4707
sg4656
I4708
sg4657
I4709
sg4658
I4710
sg4659
I4711
sg4660
I4712
sg4661
I4713
sg3699
I3740
sg4663
I4715
sg4664
I4716
sg5502
I5563
sg4666
I4718
sg4667
I4719
sg4668
I4720
sg4669
I4721
sS'['
I4722
sg4670
I4723
sg2640
I2670
sg4672
I4725
sg769
I778
sg4674
I4727
sg4675
I4728
sg4677
I4730
sg4678
I4731
sg4679
I4732
sg4680
I4733
sg4681
I4734
sg4682
I4735
sg4683
I4736
sg4684
I4737
sg4685
I4738
sg4687
I4740
sg4688
I4741
sg2644
I2675
sg4690
I4743
sg4691
I4744
sg4692
I4745
sg4693
I4746
sg4694
I4747
sg5505
I5566
sg4696
I4749
sg1716
I1734
sg4698
I4751
sg4699
I4752
sg4700
I4753
sg4701
I4754
sg4702
I4755
sg4703
I4756
sg4704
I4757
sg4705
I4758
sS'1'
I4759
sg4706
I4760
sg4707
I4761
sg4708
I4762
sg4709
I4763
sg4710
I4764
sg777
I786
sg4712
I4766
sg4713
I4767
sg4714
I4768
sg4715
I4769
sg4716
I4770
sg4717
I4771
sg4718
I4772
sg4719
I4773
sg4720
I4774
sg4721
I4775
sg4722
I4776
sg4723
I4777
sg4724
I4778
sg4725
I4779
sg4726
I4780
sg4727
I4781
sg4728
I4782
sg4729
I4783
sg4730
I4784
sg4731
I4785
sg4732
I4786
sg4733
I4787
sg4734
I4788
sg4735
I4789
sg782
I791
sg4662
I4714
sg4737
I4791
sg4738
I4792
sg4739
I4793
sg4740
I4794
sg4741
I4795
sg4742
I4796
sg4743
I4797
sg4744
I4798
sg4745
I4799
sg4746
I4800
sg4747
I4801
sg4748
I4802
sg4749
I4803
sg4750
I4804
sg4751
I4805
sg4752
I4806
sg4753
I4807
sg4754
I4808
sg4755
I4809
sg124
I122
sg4757
I4811
sg4758
I4812
sg4759
I4813
sg136
I134
sg4761
I4815
sg4762
I4816
sg4763
I4817
sg4764
I4818
sg4765
I4819
sg4766
I4820
sg4767
I4821
sg4768
I4822
sg4769
I4823
sg4770
I4824
sg4771
I4825
sg4772
I4826
sg4773
I4827
sg4774
I4828
sg4775
I4829
sg4776
I4830
sg4777
I4831
sg4778
I4832
sg4779
I4833
sg4780
I4834
sg3946
I3990
sg4782
I4836
sg4783
I4837
sg1359
I1374
sg230
I230
sg4785
I4839
sg4786
I4840
sg692
I700
sg4788
I4842
sg4789
I4843
sg4790
I4844
sg4791
I4845
sg4792
I4846
sg4793
I4847
sg4794
I4848
sg4795
I4849
sg4796
I4850
sg4797
I4851
sg4798
I4852
sg4799
I4853
sg4933
I4987
sg4800
I4854
sg4801
I4855
sg4802
I4856
sg4803
I4857
sg4804
I4858
sg372
I375
sg4806
I4860
sg4807
I4861
sg2670
I2701
sg4809
I4863
sg4810
I4864
sS'H'
I448
sg791
I800
sg4813
I4867
sg4814
I4868
sg4815
I4869
sg4610
I4661
sg4816
I4870
sg4817
I4871
sg793
I802
sg4819
I4873
sg4820
I4874
sg504
I508
sg4823
I4877
sg4824
I4878
sg4825
I4879
sg4826
I4880
sg4827
I4881
sg4828
I4882
sg4829
I4883
sg4830
I4884
sg4831
I4885
sg4832
I4886
sg4833
I4887
sg4834
I4888
sg5529
I5590
sg4836
I4890
sg4837
I4891
sg4838
I4892
sg4839
I4893
sg4840
I4894
sg4841
I4895
sg4842
I4896
sg4580
I4631
sg4844
I4898
sg4845
I4899
sg4846
I4900
sg4847
I4901
sg4848
I4902
sg4849
I4903
sg4850
I4904
sg4851
I4905
sg4852
I4906
sg4853
I4907
sg4854
I4908
sg4855
I4909
sg4856
I4910
sg4857
I4911
sg4858
I4912
sg4859
I4913
sg4860
I4914
sg4861
I4915
sg4862
I4916
sg4863
I4917
sg4864
I4918
sg4865
I4919
sg4866
I4920
sg4867
I4921
sg4868
I4922
sg4869
I4923
sg4870
I4924
sg4871
I4925
sg4872
I4926
sg4873
I4927
sg4874
I4928
sg4875
I4929
sg4876
I4930
sg718
I726
sg4878
I4932
sg4879
I4933
sg4880
I4934
sg4881
I4935
sg4882
I4936
sg4883
I4937
sg4884
I4938
sg4885
I4939
sg4886
I4940
sg4887
I4941
sg4888
I4942
sg4889
I4943
sg4890
I4944
sg4614
I4665
sg4892
I4946
sg4893
I4947
sg812
I821
sg4895
I4949
sg4896
I4950
sg4897
I4951
sg4898
I4952
sg4899
I4953
sg4900
I4954
sg4901
I4955
sg4902
I4956
sg4903
I4957
sg4904
I4958
sg4905
I4959
sg4906
I4960
sg864
I874
sg4908
I4962
sg4909
I4963
sg4618
I4669
sg1113
I1127
sg4912
I4966
sg4913
I4967
sg4914
I4968
sg4915
I4969
sg4916
I4970
sg4917
I4971
sg4918
I4972
sg4919
I4973
sg4920
I4974
sg4921
I4975
sg4922
I4976
sg3682
I3723
sg4924
I4978
sg4925
I4979
sg4926
I4980
sg4927
I4981
sg4928
I4982
sg4929
I4983
sg1824
I1844
sg4930
I4984
sg4931
I4985
sg4932
I4986
sg1015
I1028
sg4934
I4988
sg4935
I4989
sg4936
I4990
sg4114
I4158
sg5536
I5597
sg4938
I4992
sg4939
I4993
sg4940
I4994
sg1060
I1074
sg4942
I4996
sg4943
I4997
sg4944
I4998
sg1261
I1276
sg4945
I4999
sg4946
I5000
sg4947
I5001
sg4948
I5002
sg4949
I5003
sg4950
I5004
sg4951
I5005
sg4952
I5006
sg4953
I5007
sg4954
I5008
sg4955
I5009
sg4956
I5010
sg4957
I5011
sg4958
I5012
sg4959
I5013
sg4960
I5014
sg4961
I5015
sg4962
I5016
sg3692
I3733
sg4964
I5018
sg4965
I5019
sg4966
I5020
sg4967
I5021
sg4968
I5022
sg4969
I5023
sg4970
I5024
sg4971
I5025
sg4972
I5026
sg4973
I5027
sg2695
I2726
sg4975
I5029
sg3698
I3739
sg4976
I5030
sS'5'
I5031
sg4977
I5032
sg4978
I5033
sg4979
I5034
sg4980
I5035
sg4981
I5036
sg4982
I5037
sg4983
I5038
sg4984
I5039
sg4985
I5040
sg4986
I5041
sg4987
I5042
sg4988
I5043
sg4989
I5044
sg4990
I5045
sg4991
I5046
sg4992
I5047
sg4993
I5048
sg4994
I5049
sg4995
I5050
sg4996
I5051
sg4997
I5052
sg4998
I5053
sg4999
I5054
sg5000
I5055
sg5001
I5056
sg5002
I5057
sg5003
I5058
sg5004
I5059
sg5005
I5060
sg5006
I5061
sg5007
I5062
sg5008
I5063
sg5009
I5064
sg5010
I5065
sg5011
I5066
sg5012
I5067
sg5013
I5068
sg5014
I5069
sg5015
I5070
sg5016
I5071
sg5017
I5072
sg5018
I5073
sg5019
I5074
sg5020
I5075
sg5021
I5076
sg5022
I5077
sg5023
I5078
sg5024
I5079
sg5025
I5080
sg5026
I5081
sg5027
I5082
sg5028
I5083
sg5029
I5084
sg5030
I5085
sg5031
I5086
sg5032
I5087
sg5033
I5088
sg5034
I5089
sg5035
I5090
sg5036
I5091
sg5037
I5092
sg5038
I5093
sg5039
I5094
sg5040
I5095
sg5041
I5096
sg5042
I5097
sg5043
I5098
sg5044
I5099
sg5045
I5100
sg5046
I5101
sg5047
I5102
sg5048
I5103
sg5049
I5104
sg5050
I5105
sg5051
I5106
sg5052
I5107
sg5053
I5108
sg5054
I5109
sg5055
I5110
sg5056
I5111
sg5057
I5112
sg5058
I5113
sS'v'
I5114
sg5059
I5115
sg5060
I5116
sg5061
I5117
sg5062
I5118
sg5063
I5119
sg5064
I5120
sg5065
I5121
sg5066
I5122
sg5067
I5123
sg5068
I5124
sg5069
I5125
sg5070
I5126
sg5071
I5127
sg5074
I5130
sg5075
I5131
sg5076
I5132
sg1947
I1967
sg5078
I5134
sg5079
I5135
sg5080
I5136
sg5081
I5137
sg5082
I5138
sg5083
I5139
sg5084
I5140
sg5085
I5141
sg5086
I5142
sg5087
I5143
sg2714
I2745
sg5089
I5145
sg5090
I5146
sg5091
I5147
sg5092
I5148
sS'L'
I5149
sg5093
I5150
sg5094
I5151
sg5095
I5152
sg5096
I5153
sg5097
I5154
sg5098
I5155
sg5099
I5156
sg5100
I5157
sg5101
I5158
sg5102
I5159
sg5103
I5160
sg5104
I5161
sg5105
I5162
sg5106
I5163
sg5107
I5164
sg5108
I5165
sg5109
I5166
sg5110
I5167
sg5111
I5168
sg5112
I5169
sg5113
I5170
sg5114
I5171
sg5115
I5172
sg5116
I5173
sg4447
I4496
sg5118
I5175
sg5119
I5176
sg5120
I5177
sg5121
I5178
sg5122
I5179
sg5123
I5180
sg5124
I5181
sg5125
I5182
sS'"'
I5183
sg5126
I5184
sg5127
I5185
sg5128
I5186
sg5129
I5187
sg5130
I5188
sg5131
I5189
sg5132
I5190
sg5133
I5191
sg5134
I5192
sg5135
I5193
sg5136
I5194
sg5137
I5195
sg5138
I5196
sg5139
I5197
sg5140
I5198
sg5141
I5199
sg5142
I5200
sg5143
I5201
sg5144
I5202
sg5145
I5203
sg5146
I5204
sg5147
I5205
sg5148
I5206
sg5149
I5207
sg5150
I5208
sg5151
I5209
sg5152
I5210
sg5153
I5211
sg5154
I5212
sg5155
I5213
sg5156
I5214
sg5157
I5215
sg5158
I5216
sg5159
I5217
sg5160
I5218
sg5161
I5219
sg5162
I5220
sg5163
I5221
sg5164
I5222
sg5165
I5223
sg2435
I2462
sg5167
I5225
sg5168
I5226
sg5169
I5227
sg5170
I5228
sg5171
I5229
sg5172
I5230
sg5173
I5231
sg5174
I5232
sg5175
I5233
sg5176
I5234
sg5177
I5235
sg5178
I5236
sg2552
I2581
sg5180
I5238
sg5181
I5239
sg5182
I5240
sg5183
I5241
sg5184
I5242
sg5185
I5243
sg5186
I5244
sg5187
I5245
sg5188
I5246
sg5189
I5247
sg5190
I5248
sg5191
I5249
sg5192
I5250
sg5193
I5251
sg5194
I5252
sg3736
I3777
sg5196
I5254
sg5197
I5255
sg5198
I5256
sg5199
I5257
sg5200
I5258
sg5201
I5259
sg5202
I5260
sg5203
I5261
sg5204
I5262
sg5205
I5263
sg5206
I5264
sg5207
I5265
sg5208
I5266
sg5209
I5267
sg5210
I5268
sg5211
I5269
sg5212
I5270
sg5213
I5271
sg5214
I5272
sg5215
I5273
sg5216
I5274
sg5218
I5276
sg5219
I5277
sg5220
I5278
sg5221
I5279
sg5222
I5280
sg5223
I5281
sg5224
I5282
sg1799
I1818
sg5226
I5284
sg5227
I5285
sg5229
I5287
sg5230
I5288
sg5231
I5289
sg5232
I5290
sg5233
I5291
sg5234
I5292
sg5236
I5294
sg5237
I5295
sg5238
I5296
sg5239
I5297
sg5240
I5298
sg5241
I5299
sg5242
I5300
sg5243
I5301
sg5244
I5302
sg5245
I5303
sg5246
I5304
sS'9'
I5305
sg5247
I5306
sg5248
I5307
sg5249
I5308
sg5250
I5309
sg5251
I5310
sg5252
I5311
sg5253
I5312
sg2952
I2986
sg5255
I5314
sg5256
I5315
sg5257
I5316
sg5258
I5317
sg5259
I5318
sg3748
I3789
sg5261
I5320
sg5262
I5321
sg851
I860
sg5264
I5323
sS'T'
I5655
sg5266
I5325
sg5267
I5326
sg5268
I5327
sg5269
I5328
sg5270
I5329
sg5271
I5330
sg5272
I5331
sg5273
I5332
sg5274
I5333
sg5275
I5334
sg1032
I1046
sg5277
I5336
sg5278
I5337
sg5279
I5338
sg2751
I2783
sg5281
I5340
sg5282
I5341
sg5283
I5342
sg5284
I5343
sg5285
I5344
sg5286
I5345
sg5287
I5346
sg5288
I5347
sg5289
I5348
sg5290
I5349
sg5291
I5350
sg3221
I3258
sg3240
I3277
sg5294
I5353
sg5295
I5354
sg5296
I5355
sg5297
I5356
sg5298
I5357
sg5299
I5358
sg5300
I5359
sg5301
I5360
sg5302
I5361
sg5303
I5362
sg3329
I3367
sg5305
I5364
sg5306
I5365
sg5307
I5366
sg5309
I5368
sg5310
I5369
sg5311
I5370
sg5312
I5371
sg5313
I5372
sg5314
I5373
sg5315
I5374
sg5316
I5375
sg5317
I5376
sg5318
I5377
sg5319
I5378
sg5320
I5379
sg5321
I5380
sg4787
I4841
sg5322
I5381
sg5323
I5382
sg5325
I5384
sg5326
I5385
sg5327
I5386
sg5328
I5387
sg5329
I5388
sg5330
I5389
sg5331
I5390
sg5332
I5391
sg5333
I5392
sg5334
I5393
sg5335
I5394
sg5336
I5395
sg5337
I5396
sg5338
I5397
sg5339
I5398
sg5340
I5399
sg5341
I5400
sg5342
I5401
sg5343
I5402
sg5344
I5403
sg5345
I5404
sg5346
I5405
sg5347
I5406
sg5348
I5407
sg5349
I5408
sg5350
I5409
sg5351
I5410
sS'P'
I5411
sg1252
I1267
sg5352
I5412
sg5353
I5413
sg5354
I5414
sg5355
I5415
sg5356
I5416
sg5357
I5417
sg3770
I3811
sg5359
I5419
sg5360
I5420
sg5361
I5421
sg5362
I5422
sg5363
I5423
sg5364
I5424
sg5365
I5425
sg5366
I5426
sg5367
I5427
sg5368
I5428
sg5369
I5429
sg5370
I5430
sg5371
I5431
sg5372
I5432
sg5373
I5433
sg5374
I5434
sg5375
I5435
sg5376
I5436
sg5377
I5437
sg5378
I5438
sg5379
I5439
sg5380
I5440
sg5381
I5441
sg5382
I5442
sg5383
I5443
sg5384
I5444
sg5385
I5445
sg3892
I3934
sg5387
I5447
sg5388
I5448
sg5389
I5449
sg5390
I5450
sS'&'
I5451
sg5391
I5452
sg5392
I5453
sg5393
I5454
sg5394
I5455
sg5395
I5456
sg5396
I5457
sg5397
I5458
sg5398
I5459
sg5399
I5460
sg5400
I5461
sg3984
I4028
sg5402
I5463
sg5403
I5464
sg5404
I5465
sg1513
I1530
sg5406
I5467
sg5407
I5468
sg5408
I5469
sg5409
I5470
sg5410
I5471
sg5411
I5472
sg5412
I5473
sg5413
I5474
sg5414
I5475
sg5415
I5476
sg5416
I5477
sg5417
I5478
sg5418
I5479
sg5419
I5480
sg5420
I5481
sg5421
I5482
sg5422
I5483
sg5423
I5484
sg5424
I5485
sg5425
I5486
sg5426
I5487
sg5427
I5488
sg5428
I5489
sg5429
I5490
sg5430
I5491
sg5431
I5492
sg5432
I5493
sg5433
I5494
sg4167
I4213
sg5435
I5496
sg5436
I5497
sg5437
I5498
sg5438
I5499
sg5439
I5500
sg5440
I5501
sg5441
I5502
sg5442
I5503
sg5443
I5504
sg5444
I5505
sg5445
I5506
sg5446
I5507
sg5447
I5508
sg5448
I5509
sg5449
I5510
sg5450
I5511
sg5451
I5512
sg5452
I5513
sg4260
I4306
sg5454
I5515
sg5455
I5516
sg5456
I5517
sg5457
I5518
sg5458
I5519
sg5459
I5520
sg5460
I5521
sg5461
I5522
sg5462
I5523
sg5463
I5524
sg5464
I5525
sg5465
I5526
sg5466
I5527
sg5467
I5528
sg5468
I5529
sg5469
I5530
sg5470
I5531
sg5471
I5532
sg5472
I5533
sg5473
I5534
sg5474
I5535
sg5475
I5536
sg5476
I5537
sg5477
I5538
sg5478
I5539
sg4517
I4567
sg5480
I5541
sg5481
I5542
sg5482
I5543
sg4534
I4584
sg5484
I5545
sg5636
I5698
sg4572
I4623
sg5487
I5548
sg5488
I5549
sg5489
I5550
sg5490
I5551
sg5491
I5552
sg4597
I4648
sg5493
I5554
sg4616
I4667
sg5495
I5556
sg5496
I5557
sg4640
I4692
sg5498
I5559
sg5499
I5560
sg5500
I5561
sg4053
I4097
sg3337
I3375
sg4665
I4717
sg5503
I5564
sg5504
I5565
sg4695
I4748
sg5506
I5567
sg5507
I5568
sg5508
I5569
sg5509
I5570
sg5510
I5571
sg5643
I5705
sg5512
I5573
sg5513
I5574
sg5514
I5575
sg5515
I5576
sg5516
I5577
sg5517
I5578
sg5518
I5579
sg5647
I5709
sg5520
I5581
sg5521
I5582
sg5522
I5583
sg5523
I5584
sg5524
I5585
sg5525
I5586
sg5526
I5587
sg5527
I5588
sg5528
I5589
sg4835
I4889
sg5530
I5591
sg5531
I5592
sg5532
I5593
sg5533
I5594
sg5534
I5595
sg5535
I5596
sg4937
I4991
sg5537
I5598
sg5538
I5599
sg5539
I5600
sg5540
I5601
sg5541
I5602
sg5542
I5603
sg5543
I5604
sg908
I920
sg5545
I5606
sg5546
I5607
sg5547
I5608
sg5548
I5609
sg5549
I5610
sg5550
I5611
sg5551
I5612
sg5552
I5613
sg5553
I5614
sg5554
I5615
sg5555
I5616
sg5556
I5617
sg5557
I5618
sg5558
I5619
sg5559
I5620
sg5560
I5621
sg2447
I2474
sg5562
I5623
sg5563
I5624
sg5564
I5625
sg5565
I5626
sg5566
I5627
sg5567
I5628
sg5568
I5629
sg5569
I5630
sg5570
I5631
sg5571
I5632
sg5572
I5633
sg5573
I5634
sg5574
I5635
sg5575
I5636
sg5576
I5637
sg5577
I5638
sg5578
I5639
sg5579
I5640
sg5580
I5641
sg5581
I5642
sg5582
I5643
sg5583
I5644
sg5584
I5645
sg5585
I5646
sg5586
I5647
sg5654
I5716
sg5588
I5649
sg5589
I5650
sg5235
I5293
sg5591
I5652
sg5592
I5653
sg5593
I5654
sg5265
I5324
sg5594
I5656
sg5595
I5657
sg5596
I5658
sg5659
I5721
sg5598
I5660
sg5599
I5661
sg5600
I5662
sg5601
I5663
sg5602
I5664
sg5603
I5665
sg5604
I5666
sg5605
I5667
sg5606
I5668
sg5607
I5669
sg5608
I5670
sg5609
I5671
sg5610
I5672
sg5611
I5673
sg5612
I5674
sg5613
I5675
sg5614
I5676
sg5615
I5677
sg5616
I5678
sg5617
I5679
sg5618
I5680
sg5619
I5681
sg5501
I5562
sg5621
I5683
sg5622
I5684
sg5623
I5685
sg5624
I5686
sg5625
I5687
sg5626
I5688
sg4843
I4897
sg5628
I5690
sg5629
I5691
sg5630
I5692
sg5631
I5693
sg5632
I5694
sg863
I873
sg5634
I5696
sg5635
I5697
sg5485
I5546
sg5637
I5699
sg5638
I5700
sg5639
I5701
sg5640
I5702
sg5641
I5703
sg5642
I5704
sg5511
I5572
sg5644
I5706
sg5645
I5707
sg5646
I5708
sg5519
I5580
sg5648
I5710
sg5649
I5711
sg5650
I5712
sg5651
I5713
sg5652
I5714
sg5653
I5715
sg5587
I5648
sg5655
I5717
sg5656
I5718
sg3127
I3163
sg5658
I5720
sg5597
I5659
sg5660
I5722
sg5661
I5723
sg5662
I5724
sg5663
I5725
sg5664
I5726
sg5665
I5727
sa.